
biscuit5:	file format COFF-i386

Disassembly of section .text:
.text:
  401000:	83 ec 1c 	subl	$28, %esp
  401003:	8b 44 24 20 	movl	32(%esp), %eax
  401007:	8b 00 	movl	(%eax), %eax
  401009:	8b 00 	movl	(%eax), %eax
  40100b:	3d 91 00 00 c0 	cmpl	$3221225617, %eax
  401010:	77 4e 	ja	78 <.text+0x60>
  401012:	3d 8d 00 00 c0 	cmpl	$3221225613, %eax
  401017:	73 60 	jae	96 <.text+0x79>
  401019:	3d 05 00 00 c0 	cmpl	$3221225477, %eax
  40101e:	0f 85 cc 00 00 00 	jne	204 <.text+0xF0>
  401024:	c7 44 24 04 00 00 00 00 	movl	$0, 4(%esp)
  40102c:	c7 04 24 0b 00 00 00 	movl	$11, (%esp)
  401033:	e8 98 2b 00 00 	calll	11160 <_signal>
  401038:	83 f8 01 	cmpl	$1, %eax
  40103b:	0f 84 48 01 00 00 	je	328 <.text+0x189>
  401041:	85 c0 	testl	%eax, %eax
  401043:	0f 85 e7 00 00 00 	jne	231 <.text+0x130>
  401049:	8d b4 26 00 00 00 00 	leal	(%esi), %esi
  401050:	31 c0 	xorl	%eax, %eax
  401052:	83 c4 1c 	addl	$28, %esp
  401055:	c2 04 00 	retl	$4
  401058:	90 	nop
  401059:	8d b4 26 00 00 00 00 	leal	(%esi), %esi
  401060:	3d 94 00 00 c0 	cmpl	$3221225620, %eax
  401065:	74 49 	je	73 <.text+0xB0>
  401067:	3d 96 00 00 c0 	cmpl	$3221225622, %eax
  40106c:	0f 84 89 00 00 00 	je	137 <.text+0xFB>
  401072:	3d 93 00 00 c0 	cmpl	$3221225619, %eax
  401077:	75 d7 	jne	-41 <.text+0x50>
  401079:	c7 44 24 04 00 00 00 00 	movl	$0, 4(%esp)
  401081:	c7 04 24 08 00 00 00 	movl	$8, (%esp)
  401088:	e8 43 2b 00 00 	calll	11075 <_signal>
  40108d:	83 f8 01 	cmpl	$1, %eax
  401090:	0f 84 ad 00 00 00 	je	173 <.text+0x143>
  401096:	85 c0 	testl	%eax, %eax
  401098:	74 b6 	je	-74 <.text+0x50>
  40109a:	c7 04 24 08 00 00 00 	movl	$8, (%esp)
  4010a1:	ff d0 	calll	*%eax
  4010a3:	b8 ff ff ff ff 	movl	$4294967295, %eax
  4010a8:	eb a8 	jmp	-88 <.text+0x52>
  4010aa:	8d b6 00 00 00 00 	leal	(%esi), %esi
  4010b0:	c7 44 24 04 00 00 00 00 	movl	$0, 4(%esp)
  4010b8:	c7 04 24 08 00 00 00 	movl	$8, (%esp)
  4010bf:	e8 0c 2b 00 00 	calll	11020 <_signal>
  4010c4:	83 f8 01 	cmpl	$1, %eax
  4010c7:	75 cd 	jne	-51 <.text+0x96>
  4010c9:	c7 44 24 04 01 00 00 00 	movl	$1, 4(%esp)
  4010d1:	c7 04 24 08 00 00 00 	movl	$8, (%esp)
  4010d8:	e8 f3 2a 00 00 	calll	10995 <_signal>
  4010dd:	b8 ff ff ff ff 	movl	$4294967295, %eax
  4010e2:	e9 6b ff ff ff 	jmp	-149 <.text+0x52>
  4010e7:	89 f6 	movl	%esi, %esi
  4010e9:	8d bc 27 00 00 00 00 	leal	(%edi), %edi
  4010f0:	3d 1d 00 00 c0 	cmpl	$3221225501, %eax
  4010f5:	0f 85 55 ff ff ff 	jne	-171 <.text+0x50>
  4010fb:	c7 44 24 04 00 00 00 00 	movl	$0, 4(%esp)
  401103:	c7 04 24 04 00 00 00 	movl	$4, (%esp)
  40110a:	e8 c1 2a 00 00 	calll	10945 <_signal>
  40110f:	83 f8 01 	cmpl	$1, %eax
  401112:	74 59 	je	89 <.text+0x16D>
  401114:	85 c0 	testl	%eax, %eax
  401116:	0f 84 34 ff ff ff 	je	-204 <.text+0x50>
  40111c:	c7 04 24 04 00 00 00 	movl	$4, (%esp)
  401123:	ff d0 	calll	*%eax
  401125:	b8 ff ff ff ff 	movl	$4294967295, %eax
  40112a:	e9 23 ff ff ff 	jmp	-221 <.text+0x52>
  40112f:	90 	nop
  401130:	c7 04 24 0b 00 00 00 	movl	$11, (%esp)
  401137:	ff d0 	calll	*%eax
  401139:	b8 ff ff ff ff 	movl	$4294967295, %eax
  40113e:	e9 0f ff ff ff 	jmp	-241 <.text+0x52>
  401143:	c7 44 24 04 01 00 00 00 	movl	$1, 4(%esp)
  40114b:	c7 04 24 08 00 00 00 	movl	$8, (%esp)
  401152:	e8 79 2a 00 00 	calll	10873 <_signal>
  401157:	c7 04 24 00 00 00 00 	movl	$0, (%esp)
  40115e:	e8 8d 10 00 00 	calll	4237 <_fesetenv>
  401163:	b8 ff ff ff ff 	movl	$4294967295, %eax
  401168:	e9 e5 fe ff ff 	jmp	-283 <.text+0x52>
  40116d:	c7 44 24 04 01 00 00 00 	movl	$1, 4(%esp)
  401175:	c7 04 24 04 00 00 00 	movl	$4, (%esp)
  40117c:	e8 4f 2a 00 00 	calll	10831 <_signal>
  401181:	83 c8 ff 	orl	$-1, %eax
  401184:	e9 c9 fe ff ff 	jmp	-311 <.text+0x52>
  401189:	c7 44 24 04 01 00 00 00 	movl	$1, 4(%esp)
  401191:	c7 04 24 0b 00 00 00 	movl	$11, (%esp)
  401198:	e8 33 2a 00 00 	calll	10803 <_signal>
  40119d:	83 c8 ff 	orl	$-1, %eax
  4011a0:	e9 ad fe ff ff 	jmp	-339 <.text+0x52>
  4011a5:	8d 74 26 00 	leal	(%esi), %esi
  4011a9:	8d bc 27 00 00 00 00 	leal	(%edi), %edi
  4011b0:	53 	pushl	%ebx
  4011b1:	83 ec 18 	subl	$24, %esp
  4011b4:	a1 64 50 40 00 	movl	4214884, %eax
  4011b9:	85 c0 	testl	%eax, %eax
  4011bb:	74 1c 	je	28 <.text+0x1D9>
  4011bd:	c7 44 24 08 00 00 00 00 	movl	$0, 8(%esp)
  4011c5:	c7 44 24 04 02 00 00 00 	movl	$2, 4(%esp)
  4011cd:	c7 04 24 00 00 00 00 	movl	$0, (%esp)
  4011d4:	ff d0 	calll	*%eax
  4011d6:	83 ec 0c 	subl	$12, %esp
  4011d9:	c7 04 24 00 10 40 00 	movl	$4198400, (%esp)
  4011e0:	e8 93 2a 00 00 	calll	10899 <_SetUnhandledExceptionFilter@4>
  4011e5:	83 ec 04 	subl	$4, %esp
  4011e8:	e8 33 08 00 00 	calll	2099 <___cpu_features_init>
  4011ed:	a1 08 40 40 00 	movl	4210696, %eax
  4011f2:	89 04 24 	movl	%eax, (%esp)
  4011f5:	e8 f6 0f 00 00 	calll	4086 <_fesetenv>
  4011fa:	e8 a1 04 00 00 	calll	1185 <__setargv>
  4011ff:	a1 20 70 40 00 	movl	4223008, %eax
  401204:	85 c0 	testl	%eax, %eax
  401206:	74 42 	je	66 <.text+0x24A>
  401208:	8b 1d a4 81 40 00 	movl	4227492, %ebx
  40120e:	a3 0c 40 40 00 	movl	%eax, 4210700
  401213:	89 44 24 04 	movl	%eax, 4(%esp)
  401217:	8b 43 10 	movl	16(%ebx), %eax
  40121a:	89 04 24 	movl	%eax, (%esp)
  40121d:	e8 fe 29 00 00 	calll	10750 <__setmode>
  401222:	a1 20 70 40 00 	movl	4223008, %eax
  401227:	89 44 24 04 	movl	%eax, 4(%esp)
  40122b:	8b 43 30 	movl	48(%ebx), %eax
  40122e:	89 04 24 	movl	%eax, (%esp)
  401231:	e8 ea 29 00 00 	calll	10730 <__setmode>
  401236:	a1 20 70 40 00 	movl	4223008, %eax
  40123b:	89 44 24 04 	movl	%eax, 4(%esp)
  40123f:	8b 43 50 	movl	80(%ebx), %eax
  401242:	89 04 24 	movl	%eax, (%esp)
  401245:	e8 d6 29 00 00 	calll	10710 <__setmode>
  40124a:	e8 f9 29 00 00 	calll	10745 <___p__fmode>
  40124f:	8b 15 0c 40 40 00 	movl	4210700, %edx
  401255:	89 10 	movl	%edx, (%eax)
  401257:	e8 94 0d 00 00 	calll	3476 <__pei386_runtime_relocator>
  40125c:	83 e4 f0 	andl	$-16, %esp
  40125f:	e8 1c 09 00 00 	calll	2332 <___main>
  401264:	e8 e7 29 00 00 	calll	10727 <___p__environ>
  401269:	8b 00 	movl	(%eax), %eax
  40126b:	89 44 24 08 	movl	%eax, 8(%esp)
  40126f:	a1 00 70 40 00 	movl	4222976, %eax
  401274:	89 44 24 04 	movl	%eax, 4(%esp)
  401278:	a1 04 70 40 00 	movl	4222980, %eax
  40127d:	89 04 24 	movl	%eax, (%esp)
  401280:	e8 86 02 00 00 	calll	646 <_main>
  401285:	89 c3 	movl	%eax, %ebx
  401287:	e8 b4 29 00 00 	calll	10676 <__cexit>
  40128c:	89 1c 24 	movl	%ebx, (%esp)
  40128f:	e8 44 2a 00 00 	calll	10820 <_ExitProcess@4>
  401294:	8d b6 00 00 00 00 	leal	(%esi), %esi
  40129a:	8d bf 00 00 00 00 	leal	(%edi), %edi

__mingw32_init_mainargs:
  4012a0:	83 ec 3c 	subl	$60, %esp
  4012a3:	8d 44 24 2c 	leal	44(%esp), %eax
  4012a7:	c7 44 24 04 00 70 40 00 	movl	$4222976, 4(%esp)
  4012af:	c7 04 24 04 70 40 00 	movl	$4222980, (%esp)
  4012b6:	c7 44 24 2c 00 00 00 00 	movl	$0, 44(%esp)
  4012be:	89 44 24 10 	movl	%eax, 16(%esp)
  4012c2:	a1 04 40 40 00 	movl	4210692, %eax
  4012c7:	83 e0 01 	andl	$1, %eax
  4012ca:	89 44 24 0c 	movl	%eax, 12(%esp)
  4012ce:	8d 44 24 28 	leal	40(%esp), %eax
  4012d2:	89 44 24 08 	movl	%eax, 8(%esp)
  4012d6:	e8 7d 29 00 00 	calll	10621 <___getmainargs>
  4012db:	83 c4 3c 	addl	$60, %esp
  4012de:	c3 	retl
  4012df:	90 	nop

_mainCRTStartup:
  4012e0:	83 ec 1c 	subl	$28, %esp
  4012e3:	c7 04 24 01 00 00 00 	movl	$1, (%esp)
  4012ea:	ff 15 90 81 40 00 	calll	*4227472
  4012f0:	e8 bb fe ff ff 	calll	-325 <.text+0x1B0>
  4012f5:	8d 74 26 00 	leal	(%esi), %esi
  4012f9:	8d bc 27 00 00 00 00 	leal	(%edi), %edi

_WinMainCRTStartup:
  401300:	83 ec 1c 	subl	$28, %esp
  401303:	c7 04 24 02 00 00 00 	movl	$2, (%esp)
  40130a:	ff 15 90 81 40 00 	calll	*4227472
  401310:	e8 9b fe ff ff 	calll	-357 <.text+0x1B0>
  401315:	8d 74 26 00 	leal	(%esi), %esi
  401319:	8d bc 27 00 00 00 00 	leal	(%edi), %edi

_atexit:
  401320:	ff 25 bc 81 40 00 	jmpl	*4227516
  401326:	8d 76 00 	leal	(%esi), %esi
  401329:	8d bc 27 00 00 00 00 	leal	(%edi), %edi

__onexit:
  401330:	ff 25 ac 81 40 00 	jmpl	*4227500
  401336:	90 	nop
  401337:	90 	nop
  401338:	90 	nop
  401339:	90 	nop
  40133a:	90 	nop
  40133b:	90 	nop
  40133c:	90 	nop
  40133d:	90 	nop
  40133e:	90 	nop
  40133f:	90 	nop

___gcc_register_frame:
  401340:	55 	pushl	%ebp
  401341:	89 e5 	movl	%esp, %ebp
  401343:	56 	pushl	%esi
  401344:	53 	pushl	%ebx
  401345:	83 ec 10 	subl	$16, %esp
  401348:	c7 04 24 00 50 40 00 	movl	$4214784, (%esp)
  40134f:	e8 4c 29 00 00 	calll	10572 <_GetModuleHandleA@4>
  401354:	83 ec 04 	subl	$4, %esp
  401357:	85 c0 	testl	%eax, %eax
  401359:	0f 84 b1 00 00 00 	je	177 <___gcc_register_frame+0xD0>
  40135f:	c7 04 24 00 50 40 00 	movl	$4214784, (%esp)
  401366:	89 c3 	movl	%eax, %ebx
  401368:	e8 13 29 00 00 	calll	10515 <_LoadLibraryA@4>
  40136d:	83 ec 04 	subl	$4, %esp
  401370:	a3 6c 70 40 00 	movl	%eax, 4223084
  401375:	c7 44 24 04 13 50 40 00 	movl	$4214803, 4(%esp)
  40137d:	89 1c 24 	movl	%ebx, (%esp)
  401380:	e8 13 29 00 00 	calll	10515 <_GetProcAddress@8>
  401385:	83 ec 08 	subl	$8, %esp
  401388:	89 c6 	movl	%eax, %esi
  40138a:	c7 44 24 04 29 50 40 00 	movl	$4214825, 4(%esp)
  401392:	89 1c 24 	movl	%ebx, (%esp)
  401395:	e8 fe 28 00 00 	calll	10494 <_GetProcAddress@8>
  40139a:	83 ec 08 	subl	$8, %esp
  40139d:	a3 00 40 40 00 	movl	%eax, 4210688
  4013a2:	85 f6 	testl	%esi, %esi
  4013a4:	74 11 	je	17 <___gcc_register_frame+0x77>
  4013a6:	c7 44 24 04 08 70 40 00 	movl	$4222984, 4(%esp)
  4013ae:	c7 04 24 c8 60 40 00 	movl	$4219080, (%esp)
  4013b5:	ff d6 	calll	*%esi
  4013b7:	a1 18 40 40 00 	movl	4210712, %eax
  4013bc:	85 c0 	testl	%eax, %eax
  4013be:	74 3a 	je	58 <___gcc_register_frame+0xBA>
  4013c0:	c7 04 24 41 50 40 00 	movl	$4214849, (%esp)
  4013c7:	e8 d4 28 00 00 	calll	10452 <_GetModuleHandleA@4>
  4013cc:	83 ec 04 	subl	$4, %esp
  4013cf:	85 c0 	testl	%eax, %eax
  4013d1:	ba 00 00 00 00 	movl	$0, %edx
  4013d6:	74 15 	je	21 <___gcc_register_frame+0xAD>
  4013d8:	c7 44 24 04 4f 50 40 00 	movl	$4214863, 4(%esp)
  4013e0:	89 04 24 	movl	%eax, (%esp)
  4013e3:	e8 b0 28 00 00 	calll	10416 <_GetProcAddress@8>
  4013e8:	83 ec 08 	subl	$8, %esp
  4013eb:	89 c2 	movl	%eax, %edx
  4013ed:	85 d2 	testl	%edx, %edx
  4013ef:	74 09 	je	9 <___gcc_register_frame+0xBA>
  4013f1:	c7 04 24 18 40 40 00 	movl	$4210712, (%esp)
  4013f8:	ff d2 	calll	*%edx
  4013fa:	c7 04 24 30 14 40 00 	movl	$4199472, (%esp)
  401401:	e8 1a ff ff ff 	calll	-230 <_atexit>
  401406:	8d 65 f8 	leal	-8(%ebp), %esp
  401409:	5b 	popl	%ebx
  40140a:	5e 	popl	%esi
  40140b:	5d 	popl	%ebp
  40140c:	c3 	retl
  40140d:	8d 76 00 	leal	(%esi), %esi
  401410:	c7 05 00 40 40 00 00 00 00 00 	movl	$0, 4210688
  40141a:	be 00 00 00 00 	movl	$0, %esi
  40141f:	eb 81 	jmp	-127 <___gcc_register_frame+0x62>
  401421:	eb 0d 	jmp	13 <___gcc_deregister_frame>
  401423:	90 	nop
  401424:	90 	nop
  401425:	90 	nop
  401426:	90 	nop
  401427:	90 	nop
  401428:	90 	nop
  401429:	90 	nop
  40142a:	90 	nop
  40142b:	90 	nop
  40142c:	90 	nop
  40142d:	90 	nop
  40142e:	90 	nop
  40142f:	90 	nop

___gcc_deregister_frame:
  401430:	55 	pushl	%ebp
  401431:	89 e5 	movl	%esp, %ebp
  401433:	83 ec 18 	subl	$24, %esp
  401436:	a1 00 40 40 00 	movl	4210688, %eax
  40143b:	85 c0 	testl	%eax, %eax
  40143d:	74 09 	je	9 <___gcc_deregister_frame+0x18>
  40143f:	c7 04 24 c8 60 40 00 	movl	$4219080, (%esp)
  401446:	ff d0 	calll	*%eax
  401448:	a1 6c 70 40 00 	movl	4223084, %eax
  40144d:	85 c0 	testl	%eax, %eax
  40144f:	74 0b 	je	11 <___gcc_deregister_frame+0x2C>
  401451:	89 04 24 	movl	%eax, (%esp)
  401454:	e8 5f 28 00 00 	calll	10335 <_FreeLibrary@4>
  401459:	83 ec 04 	subl	$4, %esp
  40145c:	c9 	leave
  40145d:	c3 	retl
  40145e:	90 	nop
  40145f:	90 	nop

_shift_char:
  401460:	55 	pushl	%ebp
  401461:	89 e5 	movl	%esp, %ebp
  401463:	83 ec 34 	subl	$52, %esp
  401466:	8b 45 0c 	movl	12(%ebp), %eax
  401469:	88 45 cc 	movb	%al, -52(%ebp)
  40146c:	c7 45 dd 61 62 63 64 	movl	$1684234849, -35(%ebp)
  401473:	c7 45 e1 65 66 67 68 	movl	$1751606885, -31(%ebp)
  40147a:	c7 45 e5 69 6a 6b 6c 	movl	$1818978921, -27(%ebp)
  401481:	c7 45 e9 6d 6e 6f 70 	movl	$1886350957, -23(%ebp)
  401488:	c7 45 ed 71 72 73 74 	movl	$1953722993, -19(%ebp)
  40148f:	c7 45 f1 75 76 77 78 	movl	$2021095029, -15(%ebp)
  401496:	66 c7 45 f5 79 7a 	movw	$31353, -11(%ebp)
  40149c:	c6 45 f7 00 	movb	$0, -9(%ebp)
  4014a0:	c7 45 fc 00 00 00 00 	movl	$0, -4(%ebp)
  4014a7:	eb 14 	jmp	20 <_shift_char+0x5D>
  4014a9:	8d 55 dd 	leal	-35(%ebp), %edx
  4014ac:	8b 45 fc 	movl	-4(%ebp), %eax
  4014af:	01 d0 	addl	%edx, %eax
  4014b1:	0f b6 00 	movzbl	(%eax), %eax
  4014b4:	3a 45 cc 	cmpb	-52(%ebp), %al
  4014b7:	74 0c 	je	12 <_shift_char+0x65>
  4014b9:	83 45 fc 01 	addl	$1, -4(%ebp)
  4014bd:	83 7d fc 19 	cmpl	$25, -4(%ebp)
  4014c1:	7e e6 	jle	-26 <_shift_char+0x49>
  4014c3:	eb 01 	jmp	1 <_shift_char+0x66>
  4014c5:	90 	nop
  4014c6:	8b 55 fc 	movl	-4(%ebp), %edx
  4014c9:	8b 45 08 	movl	8(%ebp), %eax
  4014cc:	8d 0c 02 	leal	(%edx,%eax), %ecx
  4014cf:	ba 4f ec c4 4e 	movl	$1321528399, %edx
  4014d4:	89 c8 	movl	%ecx, %eax
  4014d6:	f7 ea 	imull	%edx
  4014d8:	c1 fa 03 	sarl	$3, %edx
  4014db:	89 c8 	movl	%ecx, %eax
  4014dd:	c1 f8 1f 	sarl	$31, %eax
  4014e0:	29 c2 	subl	%eax, %edx
  4014e2:	89 d0 	movl	%edx, %eax
  4014e4:	89 45 f8 	movl	%eax, -8(%ebp)
  4014e7:	8b 45 f8 	movl	-8(%ebp), %eax
  4014ea:	6b c0 1a 	imull	$26, %eax, %eax
  4014ed:	29 c1 	subl	%eax, %ecx
  4014ef:	89 c8 	movl	%ecx, %eax
  4014f1:	89 45 f8 	movl	%eax, -8(%ebp)
  4014f4:	83 7d f8 00 	cmpl	$0, -8(%ebp)
  4014f8:	79 04 	jns	4 <_shift_char+0x9E>
  4014fa:	83 45 f8 1a 	addl	$26, -8(%ebp)
  4014fe:	8d 55 dd 	leal	-35(%ebp), %edx
  401501:	8b 45 f8 	movl	-8(%ebp), %eax
  401504:	01 d0 	addl	%edx, %eax
  401506:	0f b6 00 	movzbl	(%eax), %eax
  401509:	c9 	leave
  40150a:	c3 	retl

_main:
  40150b:	55 	pushl	%ebp
  40150c:	89 e5 	movl	%esp, %ebp
  40150e:	57 	pushl	%edi
  40150f:	53 	pushl	%ebx
  401510:	83 e4 f0 	andl	$-16, %esp
  401513:	81 ec f0 00 00 00 	subl	$240, %esp
  401519:	e8 62 06 00 00 	calll	1634 <___main>
  40151e:	c7 84 24 cd 00 00 00 61 62 63 64 	movl	$1684234849, 205(%esp)
  401529:	c7 84 24 d1 00 00 00 65 66 67 68 	movl	$1751606885, 209(%esp)
  401534:	c7 84 24 d5 00 00 00 69 6a 6b 6c 	movl	$1818978921, 213(%esp)
  40153f:	c7 84 24 d9 00 00 00 6d 6e 6f 70 	movl	$1886350957, 217(%esp)
  40154a:	c7 84 24 dd 00 00 00 71 72 73 74 	movl	$1953722993, 221(%esp)
  401555:	c7 84 24 e1 00 00 00 75 76 77 78 	movl	$2021095029, 225(%esp)
  401560:	66 c7 84 24 e5 00 00 00 79 7a 	movw	$31353, 229(%esp)
  40156a:	c6 84 24 e7 00 00 00 00 	movb	$0, 231(%esp)
  401572:	c7 84 24 9b 00 00 00 62 69 73 63 	movl	$1668508002, 155(%esp)
  40157d:	c7 84 24 9f 00 00 00 75 69 74 00 	movl	$7629173, 159(%esp)
  401588:	8d 84 24 a3 00 00 00 	leal	163(%esp), %eax
  40158f:	b9 2a 00 00 00 	movl	$42, %ecx
  401594:	bb 00 00 00 00 	movl	$0, %ebx
  401599:	89 18 	movl	%ebx, (%eax)
  40159b:	89 5c 08 fc 	movl	%ebx, -4(%eax,%ecx)
  40159f:	8d 50 04 	leal	4(%eax), %edx
  4015a2:	83 e2 fc 	andl	$-4, %edx
  4015a5:	29 d0 	subl	%edx, %eax
  4015a7:	01 c1 	addl	%eax, %ecx
  4015a9:	83 e1 fc 	andl	$-4, %ecx
  4015ac:	c1 e9 02 	shrl	$2, %ecx
  4015af:	89 d7 	movl	%edx, %edi
  4015b1:	89 d8 	movl	%ebx, %eax
  4015b3:	f3 	rep
  4015b4:	ab 	stosl	%eax, %es:(%edi)
  4015b5:	c7 44 24 18 01 00 00 00 	movl	$1, 24(%esp)
  4015bd:	c7 44 24 1c 19 00 00 00 	movl	$25, 28(%esp)
  4015c5:	c7 44 24 20 16 00 00 00 	movl	$22, 32(%esp)
  4015cd:	c7 44 24 24 12 00 00 00 	movl	$18, 36(%esp)
  4015d5:	c7 44 24 28 03 00 00 00 	movl	$3, 40(%esp)
  4015dd:	c7 44 24 2c 00 00 00 00 	movl	$0, 44(%esp)
  4015e5:	c7 44 24 30 00 00 00 00 	movl	$0, 48(%esp)
  4015ed:	c7 44 24 08 05 00 00 00 	movl	$5, 8(%esp)
  4015f5:	8d 84 24 9b 00 00 00 	leal	155(%esp), %eax
  4015fc:	89 44 24 04 	movl	%eax, 4(%esp)
  401600:	8d 44 24 69 	leal	105(%esp), %eax
  401604:	89 04 24 	movl	%eax, (%esp)
  401607:	e8 ac 25 00 00 	calll	9644 <_strncpy>
  40160c:	c6 44 24 6e 00 	movb	$0, 110(%esp)
  401611:	8d 44 24 69 	leal	105(%esp), %eax
  401615:	89 04 24 	movl	%eax, (%esp)
  401618:	e8 a3 25 00 00 	calll	9635 <_strlen>
  40161d:	89 84 24 e8 00 00 00 	movl	%eax, 232(%esp)
  401624:	c7 84 24 ec 00 00 00 00 00 00 00 	movl	$0, 236(%esp)
  40162f:	eb 43 	jmp	67 <_main+0x169>
  401631:	8d 54 24 69 	leal	105(%esp), %edx
  401635:	8b 84 24 ec 00 00 00 	movl	236(%esp), %eax
  40163c:	01 d0 	addl	%edx, %eax
  40163e:	0f b6 00 	movzbl	(%eax), %eax
  401641:	0f be d0 	movsbl	%al, %edx
  401644:	8b 84 24 ec 00 00 00 	movl	236(%esp), %eax
  40164b:	8b 44 84 18 	movl	24(%esp,%eax,4), %eax
  40164f:	89 54 24 04 	movl	%edx, 4(%esp)
  401653:	89 04 24 	movl	%eax, (%esp)
  401656:	e8 05 fe ff ff 	calll	-507 <_shift_char>
  40165b:	89 c1 	movl	%eax, %ecx
  40165d:	8d 54 24 37 	leal	55(%esp), %edx
  401661:	8b 84 24 ec 00 00 00 	movl	236(%esp), %eax
  401668:	01 d0 	addl	%edx, %eax
  40166a:	88 08 	movb	%cl, (%eax)
  40166c:	83 84 24 ec 00 00 00 01 	addl	$1, 236(%esp)
  401674:	8b 84 24 ec 00 00 00 	movl	236(%esp), %eax
  40167b:	3b 84 24 e8 00 00 00 	cmpl	232(%esp), %eax
  401682:	7c ad 	jl	-83 <_main+0x126>
  401684:	8d 54 24 37 	leal	55(%esp), %edx
  401688:	8b 84 24 ec 00 00 00 	movl	236(%esp), %eax
  40168f:	01 d0 	addl	%edx, %eax
  401691:	c6 00 00 	movb	$0, (%eax)
  401694:	b8 00 00 00 00 	movl	$0, %eax
  401699:	8d 65 f8 	leal	-8(%ebp), %esp
  40169c:	5b 	popl	%ebx
  40169d:	5f 	popl	%edi
  40169e:	5d 	popl	%ebp
  40169f:	c3 	retl

__setargv:
  4016a0:	55 	pushl	%ebp
  4016a1:	89 e5 	movl	%esp, %ebp
  4016a3:	57 	pushl	%edi
  4016a4:	56 	pushl	%esi
  4016a5:	53 	pushl	%ebx
  4016a6:	83 ec 4c 	subl	$76, %esp
  4016a9:	f6 05 04 40 40 00 02 	testb	$2, 4210692
  4016b0:	0f 84 da 02 00 00 	je	730 <__setargv+0x2F0>
  4016b6:	e8 f5 25 00 00 	calll	9717 <_GetCommandLineA@0>
  4016bb:	89 65 c4 	movl	%esp, -60(%ebp)
  4016be:	89 04 24 	movl	%eax, (%esp)
  4016c1:	89 c6 	movl	%eax, %esi
  4016c3:	e8 f8 24 00 00 	calll	9464 <_strlen>
  4016c8:	8d 44 00 11 	leal	17(%eax,%eax), %eax
  4016cc:	c1 e8 04 	shrl	$4, %eax
  4016cf:	c1 e0 04 	shll	$4, %eax
  4016d2:	e8 e9 0a 00 00 	calll	2793 <___chkstk_ms>
  4016d7:	31 c9 	xorl	%ecx, %ecx
  4016d9:	29 c4 	subl	%eax, %esp
  4016db:	c7 45 e4 00 00 00 00 	movl	$0, -28(%ebp)
  4016e2:	c7 45 d4 00 00 00 00 	movl	$0, -44(%ebp)
  4016e9:	8d 44 24 10 	leal	16(%esp), %eax
  4016ed:	c7 45 d0 00 00 00 00 	movl	$0, -48(%ebp)
  4016f4:	89 c7 	movl	%eax, %edi
  4016f6:	89 45 cc 	movl	%eax, -52(%ebp)
  4016f9:	a1 04 40 40 00 	movl	4210692, %eax
  4016fe:	25 00 44 00 00 	andl	$17408, %eax
  401703:	83 c8 10 	orl	$16, %eax
  401706:	89 45 c8 	movl	%eax, -56(%ebp)
  401709:	89 f8 	movl	%edi, %eax
  40170b:	90 	nop
  40170c:	8d 74 26 00 	leal	(%esi), %esi
  401710:	83 c6 01 	addl	$1, %esi
  401713:	0f be 56 ff 	movsbl	-1(%esi), %edx
  401717:	85 d2 	testl	%edx, %edx
  401719:	89 d3 	movl	%edx, %ebx
  40171b:	74 73 	je	115 <__setargv+0xF0>
  40171d:	80 fb 3f 	cmpb	$63, %bl
  401720:	0f 84 7d 01 00 00 	je	381 <__setargv+0x203>
  401726:	0f 8f b4 00 00 00 	jg	180 <__setargv+0x140>
  40172c:	80 fb 27 	cmpb	$39, %bl
  40172f:	0f 84 a0 01 00 00 	je	416 <__setargv+0x235>
  401735:	80 fb 2a 	cmpb	$42, %bl
  401738:	0f 84 65 01 00 00 	je	357 <__setargv+0x203>
  40173e:	80 fb 22 	cmpb	$34, %bl
  401741:	0f 85 f9 00 00 00 	jne	249 <__setargv+0x1A0>
  401747:	89 cb 	movl	%ecx, %ebx
  401749:	d1 fb 	sarl	%ebx
  40174b:	0f 84 b7 02 00 00 	je	695 <__setargv+0x368>
  401751:	01 c3 	addl	%eax, %ebx
  401753:	83 c0 01 	addl	$1, %eax
  401756:	c6 40 ff 5c 	movb	$92, -1(%eax)
  40175a:	39 d8 	cmpl	%ebx, %eax
  40175c:	75 f5 	jne	-11 <__setargv+0xB3>
  40175e:	83 7d d4 27 	cmpl	$39, -44(%ebp)
  401762:	0f 84 b8 01 00 00 	je	440 <__setargv+0x280>
  401768:	83 e1 01 	andl	$1, %ecx
  40176b:	0f 85 af 01 00 00 	jne	431 <__setargv+0x280>
  401771:	83 c6 01 	addl	$1, %esi
  401774:	31 55 d4 	xorl	%edx, -44(%ebp)
  401777:	31 c9 	xorl	%ecx, %ecx
  401779:	0f be 56 ff 	movsbl	-1(%esi), %edx
  40177d:	89 d8 	movl	%ebx, %eax
  40177f:	c7 45 d0 01 00 00 00 	movl	$1, -48(%ebp)
  401786:	85 d2 	testl	%edx, %edx
  401788:	89 d3 	movl	%edx, %ebx
  40178a:	75 91 	jne	-111 <__setargv+0x7D>
  40178c:	8d 74 26 00 	leal	(%esi), %esi
  401790:	85 c9 	testl	%ecx, %ecx
  401792:	0f 84 77 02 00 00 	je	631 <__setargv+0x36F>
  401798:	01 c1 	addl	%eax, %ecx
  40179a:	8d b6 00 00 00 00 	leal	(%esi), %esi
  4017a0:	83 c0 01 	addl	$1, %eax
  4017a3:	c6 40 ff 5c 	movb	$92, -1(%eax)
  4017a7:	39 c8 	cmpl	%ecx, %eax
  4017a9:	75 f5 	jne	-11 <__setargv+0x100>
  4017ab:	39 4d cc 	cmpl	%ecx, -52(%ebp)
  4017ae:	0f 82 ad 01 00 00 	jb	429 <__setargv+0x2C1>
  4017b4:	8b 55 d0 	movl	-48(%ebp), %edx
  4017b7:	85 d2 	testl	%edx, %edx
  4017b9:	0f 85 a2 01 00 00 	jne	418 <__setargv+0x2C1>
  4017bf:	8b 45 dc 	movl	-36(%ebp), %eax
  4017c2:	a3 04 70 40 00 	movl	%eax, 4222980
  4017c7:	8b 45 e0 	movl	-32(%ebp), %eax
  4017ca:	a3 00 70 40 00 	movl	%eax, 4222976
  4017cf:	8b 65 c4 	movl	-60(%ebp), %esp
  4017d2:	8d 65 f4 	leal	-12(%ebp), %esp
  4017d5:	5b 	popl	%ebx
  4017d6:	5e 	popl	%esi
  4017d7:	5f 	popl	%edi
  4017d8:	5d 	popl	%ebp
  4017d9:	c3 	retl
  4017da:	8d b6 00 00 00 00 	leal	(%esi), %esi
  4017e0:	80 fb 5c 	cmpb	$92, %bl
  4017e3:	0f 84 da 00 00 00 	je	218 <__setargv+0x223>
  4017e9:	80 fb 7f 	cmpb	$127, %bl
  4017ec:	0f 84 b1 00 00 00 	je	177 <__setargv+0x203>
  4017f2:	80 fb 5b 	cmpb	$91, %bl
  4017f5:	75 49 	jne	73 <__setargv+0x1A0>
  4017f7:	f6 05 04 40 40 00 20 	testb	$32, 4210692
  4017fe:	0f 85 9f 00 00 00 	jne	159 <__setargv+0x203>
  401804:	85 c9 	testl	%ecx, %ecx
  401806:	8d 79 ff 	leal	-1(%ecx), %edi
  401809:	ba 01 00 00 00 	movl	$1, %edx
  40180e:	74 22 	je	34 <__setargv+0x192>
  401810:	8d 4c 38 01 	leal	1(%eax,%edi), %ecx
  401814:	83 c0 01 	addl	$1, %eax
  401817:	c6 40 ff 5c 	movb	$92, -1(%eax)
  40181b:	39 c8 	cmpl	%ecx, %eax
  40181d:	75 f5 	jne	-11 <__setargv+0x174>
  40181f:	84 d2 	testb	%dl, %dl
  401821:	75 0d 	jne	13 <__setargv+0x190>
  401823:	8d 41 01 	leal	1(%ecx), %eax
  401826:	88 19 	movb	%bl, (%ecx)
  401828:	31 c9 	xorl	%ecx, %ecx
  40182a:	e9 e1 fe ff ff 	jmp	-287 <__setargv+0x70>
  40182f:	90 	nop
  401830:	89 c8 	movl	%ecx, %eax
  401832:	8d 48 01 	leal	1(%eax), %ecx
  401835:	c6 00 7f 	movb	$127, (%eax)
  401838:	eb e9 	jmp	-23 <__setargv+0x183>
  40183a:	8d b6 00 00 00 00 	leal	(%esi), %esi
  401840:	85 c9 	testl	%ecx, %ecx
  401842:	8d 3c 08 	leal	(%eax,%ecx), %edi
  401845:	0f 84 9f 01 00 00 	je	415 <__setargv+0x34A>
  40184b:	90 	nop
  40184c:	8d 74 26 00 	leal	(%esi), %esi
  401850:	83 c0 01 	addl	$1, %eax
  401853:	c6 40 ff 5c 	movb	$92, -1(%eax)
  401857:	39 f8 	cmpl	%edi, %eax
  401859:	75 f5 	jne	-11 <__setargv+0x1B0>
  40185b:	8b 4d d4 	movl	-44(%ebp), %ecx
  40185e:	85 c9 	testl	%ecx, %ecx
  401860:	75 35 	jne	53 <__setargv+0x1F7>
  401862:	a1 84 81 40 00 	movl	4227460, %eax
  401867:	83 38 01 	cmpl	$1, (%eax)
  40186a:	0f 84 c4 00 00 00 	je	196 <__setargv+0x294>
  401870:	c7 44 24 04 40 00 00 00 	movl	$64, 4(%esp)
  401878:	89 14 24 	movl	%edx, (%esp)
  40187b:	89 55 c0 	movl	%edx, -64(%ebp)
  40187e:	e8 a5 23 00 00 	calll	9125 <__isctype>
  401883:	85 c0 	testl	%eax, %eax
  401885:	0f 85 ba 00 00 00 	jne	186 <__setargv+0x2A5>
  40188b:	8b 55 c0 	movl	-64(%ebp), %edx
  40188e:	83 fa 09 	cmpl	$9, %edx
  401891:	0f 84 ae 00 00 00 	je	174 <__setargv+0x2A5>
  401897:	8d 47 01 	leal	1(%edi), %eax
  40189a:	88 1f 	movb	%bl, (%edi)
  40189c:	31 c9 	xorl	%ecx, %ecx
  40189e:	e9 6d fe ff ff 	jmp	-403 <__setargv+0x70>
  4018a3:	85 c9 	testl	%ecx, %ecx
  4018a5:	8d 79 ff 	leal	-1(%ecx), %edi
  4018a8:	0f 84 43 01 00 00 	je	323 <__setargv+0x351>
  4018ae:	83 fa 7f 	cmpl	$127, %edx
  4018b1:	8b 55 d4 	movl	-44(%ebp), %edx
  4018b4:	0f 94 c1 	sete	%cl
  4018b7:	85 d2 	testl	%edx, %edx
  4018b9:	0f 95 c2 	setne	%dl
  4018bc:	09 ca 	orl	%ecx, %edx
  4018be:	e9 4d ff ff ff 	jmp	-179 <__setargv+0x170>
  4018c3:	83 7d d4 27 	cmpl	$39, -44(%ebp)
  4018c7:	0f 84 d3 00 00 00 	je	211 <__setargv+0x300>
  4018cd:	83 c1 01 	addl	$1, %ecx
  4018d0:	e9 3b fe ff ff 	jmp	-453 <__setargv+0x70>
  4018d5:	f6 05 04 40 40 00 10 	testb	$16, 4210692
  4018dc:	0f 84 5e ff ff ff 	je	-162 <__setargv+0x1A0>
  4018e2:	89 cb 	movl	%ecx, %ebx
  4018e4:	d1 fb 	sarl	%ebx
  4018e6:	0f 84 2a 01 00 00 	je	298 <__setargv+0x376>
  4018ec:	01 c3 	addl	%eax, %ebx
  4018ee:	66 90 	nop
  4018f0:	83 c0 01 	addl	$1, %eax
  4018f3:	c6 40 ff 5c 	movb	$92, -1(%eax)
  4018f7:	39 c3 	cmpl	%eax, %ebx
  4018f9:	75 f5 	jne	-11 <__setargv+0x250>
  4018fb:	83 7d d4 22 	cmpl	$34, -44(%ebp)
  4018ff:	74 09 	je	9 <__setargv+0x26A>
  401901:	83 e1 01 	andl	$1, %ecx
  401904:	0f 84 67 fe ff ff 	je	-409 <__setargv+0xD1>
  40190a:	8d 43 01 	leal	1(%ebx), %eax
  40190d:	c6 03 27 	movb	$39, (%ebx)
  401910:	31 c9 	xorl	%ecx, %ecx
  401912:	c7 45 d0 01 00 00 00 	movl	$1, -48(%ebp)
  401919:	e9 f2 fd ff ff 	jmp	-526 <__setargv+0x70>
  40191e:	66 90 	nop
  401920:	8d 43 01 	leal	1(%ebx), %eax
  401923:	c6 03 22 	movb	$34, (%ebx)
  401926:	31 c9 	xorl	%ecx, %ecx
  401928:	c7 45 d0 01 00 00 00 	movl	$1, -48(%ebp)
  40192f:	e9 dc fd ff ff 	jmp	-548 <__setargv+0x70>
  401934:	a1 b0 81 40 00 	movl	4227504, %eax
  401939:	8b 00 	movl	(%eax), %eax
  40193b:	f6 04 50 40 	testb	$64, (%eax,%edx,2)
  40193f:	0f 84 49 ff ff ff 	je	-183 <__setargv+0x1EE>
  401945:	39 7d cc 	cmpl	%edi, -52(%ebp)
  401948:	72 66 	jb	102 <__setargv+0x310>
  40194a:	8b 45 d0 	movl	-48(%ebp), %eax
  40194d:	85 c0 	testl	%eax, %eax
  40194f:	75 5f 	jne	95 <__setargv+0x310>
  401951:	89 f8 	movl	%edi, %eax
  401953:	31 c9 	xorl	%ecx, %ecx
  401955:	c7 45 d0 00 00 00 00 	movl	$0, -48(%ebp)
  40195c:	e9 af fd ff ff 	jmp	-593 <__setargv+0x70>
  401961:	8d 45 d8 	leal	-40(%ebp), %eax
  401964:	c6 01 00 	movb	$0, (%ecx)
  401967:	c7 44 24 08 00 00 00 00 	movl	$0, 8(%esp)
  40196f:	89 44 24 0c 	movl	%eax, 12(%esp)
  401973:	8b 45 c8 	movl	-56(%ebp), %eax
  401976:	89 44 24 04 	movl	%eax, 4(%esp)
  40197a:	8b 45 cc 	movl	-52(%ebp), %eax
  40197d:	89 04 24 	movl	%eax, (%esp)
  401980:	e8 eb 17 00 00 	calll	6123 <___mingw_glob>
  401985:	e9 35 fe ff ff 	jmp	-459 <__setargv+0x11F>
  40198a:	8d b6 00 00 00 00 	leal	(%esi), %esi
  401990:	e8 0b f9 ff ff 	calll	-1781 <__mingw32_init_mainargs>
  401995:	8d 65 f4 	leal	-12(%ebp), %esp
  401998:	5b 	popl	%ebx
  401999:	5e 	popl	%esi
  40199a:	5f 	popl	%edi
  40199b:	5d 	popl	%ebp
  40199c:	c3 	retl
  40199d:	8d 76 00 	leal	(%esi), %esi
  4019a0:	c6 00 5c 	movb	$92, (%eax)
  4019a3:	83 c0 01 	addl	$1, %eax
  4019a6:	e9 65 fd ff ff 	jmp	-667 <__setargv+0x70>
  4019ab:	90 	nop
  4019ac:	8d 74 26 00 	leal	(%esi), %esi
  4019b0:	8d 45 d8 	leal	-40(%ebp), %eax
  4019b3:	c6 07 00 	movb	$0, (%edi)
  4019b6:	c7 44 24 08 00 00 00 00 	movl	$0, 8(%esp)
  4019be:	89 44 24 0c 	movl	%eax, 12(%esp)
  4019c2:	8b 7d c8 	movl	-56(%ebp), %edi
  4019c5:	89 7c 24 04 	movl	%edi, 4(%esp)
  4019c9:	8b 5d cc 	movl	-52(%ebp), %ebx
  4019cc:	83 cf 01 	orl	$1, %edi
  4019cf:	89 1c 24 	movl	%ebx, (%esp)
  4019d2:	e8 99 17 00 00 	calll	6041 <___mingw_glob>
  4019d7:	89 7d c8 	movl	%edi, -56(%ebp)
  4019da:	89 d8 	movl	%ebx, %eax
  4019dc:	31 c9 	xorl	%ecx, %ecx
  4019de:	c7 45 d0 00 00 00 00 	movl	$0, -48(%ebp)
  4019e5:	e9 26 fd ff ff 	jmp	-730 <__setargv+0x70>
  4019ea:	89 c7 	movl	%eax, %edi
  4019ec:	e9 6a fe ff ff 	jmp	-406 <__setargv+0x1BB>
  4019f1:	8b 7d d4 	movl	-44(%ebp), %edi
  4019f4:	83 fa 7f 	cmpl	$127, %edx
  4019f7:	0f 94 c1 	sete	%cl
  4019fa:	85 ff 	testl	%edi, %edi
  4019fc:	0f 95 c2 	setne	%dl
  4019ff:	09 ca 	orl	%ecx, %edx
  401a01:	89 c1 	movl	%eax, %ecx
  401a03:	e9 17 fe ff ff 	jmp	-489 <__setargv+0x17F>
  401a08:	89 c3 	movl	%eax, %ebx
  401a0a:	e9 4f fd ff ff 	jmp	-689 <__setargv+0xBE>
  401a0f:	89 c1 	movl	%eax, %ecx
  401a11:	e9 95 fd ff ff 	jmp	-619 <__setargv+0x10B>
  401a16:	89 c3 	movl	%eax, %ebx
  401a18:	e9 de fe ff ff 	jmp	-290 <__setargv+0x25B>
  401a1d:	90 	nop
  401a1e:	90 	nop
  401a1f:	90 	nop

___cpu_features_init:
  401a20:	9c 	pushfl
  401a21:	9c 	pushfl
  401a22:	5a 	popl	%edx
  401a23:	89 d0 	movl	%edx, %eax
  401a25:	81 f2 00 00 20 00 	xorl	$2097152, %edx
  401a2b:	52 	pushl	%edx
  401a2c:	9d 	popfl
  401a2d:	9c 	pushfl
  401a2e:	5a 	popl	%edx
  401a2f:	9d 	popfl
  401a30:	31 d0 	xorl	%edx, %eax
  401a32:	a9 00 00 20 00 	testl	$2097152, %eax
  401a37:	0f 84 a5 00 00 00 	je	165 <___cpu_features_init+0xC2>
  401a3d:	53 	pushl	%ebx
  401a3e:	31 c0 	xorl	%eax, %eax
  401a40:	0f a2 	cpuid
  401a42:	85 c0 	testl	%eax, %eax
  401a44:	0f 84 97 00 00 00 	je	151 <___cpu_features_init+0xC1>
  401a4a:	b8 01 00 00 00 	movl	$1, %eax
  401a4f:	0f a2 	cpuid
  401a51:	f6 c6 01 	testb	$1, %dh
  401a54:	74 07 	je	7 <___cpu_features_init+0x3D>
  401a56:	83 0d 24 70 40 00 01 	orl	$1, 4223012
  401a5d:	f6 c6 80 	testb	$-128, %dh
  401a60:	74 07 	je	7 <___cpu_features_init+0x49>
  401a62:	83 0d 24 70 40 00 02 	orl	$2, 4223012
  401a69:	f7 c2 00 00 80 00 	testl	$8388608, %edx
  401a6f:	74 07 	je	7 <___cpu_features_init+0x58>
  401a71:	83 0d 24 70 40 00 04 	orl	$4, 4223012
  401a78:	f7 c2 00 00 00 01 	testl	$16777216, %edx
  401a7e:	74 07 	je	7 <___cpu_features_init+0x67>
  401a80:	83 0d 24 70 40 00 08 	orl	$8, 4223012
  401a87:	f7 c2 00 00 00 02 	testl	$33554432, %edx
  401a8d:	74 07 	je	7 <___cpu_features_init+0x76>
  401a8f:	83 0d 24 70 40 00 10 	orl	$16, 4223012
  401a96:	81 e2 00 00 00 04 	andl	$67108864, %edx
  401a9c:	74 07 	je	7 <___cpu_features_init+0x85>
  401a9e:	83 0d 24 70 40 00 20 	orl	$32, 4223012
  401aa5:	f6 c1 01 	testb	$1, %cl
  401aa8:	74 07 	je	7 <___cpu_features_init+0x91>
  401aaa:	83 0d 24 70 40 00 40 	orl	$64, 4223012
  401ab1:	80 e5 20 	andb	$32, %ch
  401ab4:	75 2e 	jne	46 <___cpu_features_init+0xC4>
  401ab6:	b8 00 00 00 80 	movl	$2147483648, %eax
  401abb:	0f a2 	cpuid
  401abd:	3d 00 00 00 80 	cmpl	$2147483648, %eax
  401ac2:	76 1d 	jbe	29 <___cpu_features_init+0xC1>
  401ac4:	b8 01 00 00 80 	movl	$2147483649, %eax
  401ac9:	0f a2 	cpuid
  401acb:	85 d2 	testl	%edx, %edx
  401acd:	78 21 	js	33 <___cpu_features_init+0xD0>
  401acf:	81 e2 00 00 00 40 	andl	$1073741824, %edx
  401ad5:	74 0a 	je	10 <___cpu_features_init+0xC1>
  401ad7:	81 0d 24 70 40 00 00 02 00 00 	orl	$512, 4223012
  401ae1:	5b 	popl	%ebx
  401ae2:	f3 	rep
  401ae3:	c3 	retl
  401ae4:	81 0d 24 70 40 00 80 00 00 00 	orl	$128, 4223012
  401aee:	eb c6 	jmp	-58 <___cpu_features_init+0x96>
  401af0:	81 0d 24 70 40 00 00 01 00 00 	orl	$256, 4223012
  401afa:	eb d3 	jmp	-45 <___cpu_features_init+0xAF>
  401afc:	90 	nop
  401afd:	90 	nop
  401afe:	90 	nop
  401aff:	90 	nop

___do_global_dtors:
  401b00:	a1 10 40 40 00 	movl	4210704, %eax
  401b05:	8b 00 	movl	(%eax), %eax
  401b07:	85 c0 	testl	%eax, %eax
  401b09:	74 1f 	je	31 <___do_global_dtors+0x2A>
  401b0b:	83 ec 0c 	subl	$12, %esp
  401b0e:	66 90 	nop
  401b10:	ff d0 	calll	*%eax
  401b12:	a1 10 40 40 00 	movl	4210704, %eax
  401b17:	8d 50 04 	leal	4(%eax), %edx
  401b1a:	8b 40 04 	movl	4(%eax), %eax
  401b1d:	89 15 10 40 40 00 	movl	%edx, 4210704
  401b23:	85 c0 	testl	%eax, %eax
  401b25:	75 e9 	jne	-23 <___do_global_dtors+0x10>
  401b27:	83 c4 0c 	addl	$12, %esp
  401b2a:	f3 	rep
  401b2b:	c3 	retl
  401b2c:	8d 74 26 00 	leal	(%esi), %esi

___do_global_ctors:
  401b30:	53 	pushl	%ebx
  401b31:	83 ec 18 	subl	$24, %esp
  401b34:	8b 1d 10 3d 40 00 	movl	4209936, %ebx
  401b3a:	83 fb ff 	cmpl	$-1, %ebx
  401b3d:	74 21 	je	33 <___do_global_ctors+0x30>
  401b3f:	85 db 	testl	%ebx, %ebx
  401b41:	74 0c 	je	12 <___do_global_ctors+0x1F>
  401b43:	ff 14 9d 10 3d 40 00 	calll	*4209936(,%ebx,4)
  401b4a:	83 eb 01 	subl	$1, %ebx
  401b4d:	75 f4 	jne	-12 <___do_global_ctors+0x13>
  401b4f:	c7 04 24 00 1b 40 00 	movl	$4201216, (%esp)
  401b56:	e8 c5 f7 ff ff 	calll	-2107 <_atexit>
  401b5b:	83 c4 18 	addl	$24, %esp
  401b5e:	5b 	popl	%ebx
  401b5f:	c3 	retl
  401b60:	31 db 	xorl	%ebx, %ebx
  401b62:	eb 02 	jmp	2 <___do_global_ctors+0x36>
  401b64:	89 c3 	movl	%eax, %ebx
  401b66:	8d 43 01 	leal	1(%ebx), %eax
  401b69:	8b 14 85 10 3d 40 00 	movl	4209936(,%eax,4), %edx
  401b70:	85 d2 	testl	%edx, %edx
  401b72:	75 f0 	jne	-16 <___do_global_ctors+0x34>
  401b74:	eb c9 	jmp	-55 <___do_global_ctors+0xF>
  401b76:	8d 76 00 	leal	(%esi), %esi
  401b79:	8d bc 27 00 00 00 00 	leal	(%edi), %edi

___main:
  401b80:	a1 28 70 40 00 	movl	4223016, %eax
  401b85:	85 c0 	testl	%eax, %eax
  401b87:	74 07 	je	7 <___main+0x10>
  401b89:	f3 	rep
  401b8a:	c3 	retl
  401b8b:	90 	nop
  401b8c:	8d 74 26 00 	leal	(%esi), %esi
  401b90:	c7 05 28 70 40 00 01 00 00 00 	movl	$1, 4223016
  401b9a:	eb 94 	jmp	-108 <___do_global_ctors>
  401b9c:	90 	nop
  401b9d:	90 	nop
  401b9e:	90 	nop
  401b9f:	90 	nop

.text:
  401ba0:	83 ec 1c 	subl	$28, %esp
  401ba3:	8b 44 24 24 	movl	36(%esp), %eax
  401ba7:	83 f8 03 	cmpl	$3, %eax
  401baa:	74 14 	je	20 <.text+0x20>
  401bac:	85 c0 	testl	%eax, %eax
  401bae:	74 10 	je	16 <.text+0x20>
  401bb0:	b8 01 00 00 00 	movl	$1, %eax
  401bb5:	83 c4 1c 	addl	$28, %esp
  401bb8:	c2 0c 00 	retl	$12
  401bbb:	90 	nop
  401bbc:	8d 74 26 00 	leal	(%esi), %esi
  401bc0:	8b 54 24 28 	movl	40(%esp), %edx
  401bc4:	89 44 24 04 	movl	%eax, 4(%esp)
  401bc8:	8b 44 24 20 	movl	32(%esp), %eax
  401bcc:	89 54 24 08 	movl	%edx, 8(%esp)
  401bd0:	89 04 24 	movl	%eax, (%esp)
  401bd3:	e8 38 02 00 00 	calll	568 <___mingw_TLScallback>
  401bd8:	b8 01 00 00 00 	movl	$1, %eax
  401bdd:	83 c4 1c 	addl	$28, %esp
  401be0:	c2 0c 00 	retl	$12
  401be3:	8d b6 00 00 00 00 	leal	(%esi), %esi
  401be9:	8d bc 27 00 00 00 00 	leal	(%edi), %edi

___dyn_tls_init@12:
  401bf0:	56 	pushl	%esi
  401bf1:	53 	pushl	%ebx
  401bf2:	83 ec 14 	subl	$20, %esp
  401bf5:	83 3d 64 70 40 00 02 	cmpl	$2, 4223076
  401bfc:	8b 44 24 24 	movl	36(%esp), %eax
  401c00:	74 0a 	je	10 <___dyn_tls_init@12+0x1C>
  401c02:	c7 05 64 70 40 00 02 00 00 00 	movl	$2, 4223076
  401c0c:	83 f8 02 	cmpl	$2, %eax
  401c0f:	74 12 	je	18 <___dyn_tls_init@12+0x33>
  401c11:	83 f8 01 	cmpl	$1, %eax
  401c14:	74 4b 	je	75 <___dyn_tls_init@12+0x71>
  401c16:	83 c4 14 	addl	$20, %esp
  401c19:	b8 01 00 00 00 	movl	$1, %eax
  401c1e:	5b 	popl	%ebx
  401c1f:	5e 	popl	%esi
  401c20:	c2 0c 00 	retl	$12
  401c23:	be 14 90 40 00 	movl	$4231188, %esi
  401c28:	81 ee 14 90 40 00 	subl	$4231188, %esi
  401c2e:	c1 fe 02 	sarl	$2, %esi
  401c31:	85 f6 	testl	%esi, %esi
  401c33:	7e e1 	jle	-31 <___dyn_tls_init@12+0x26>
  401c35:	31 db 	xorl	%ebx, %ebx
  401c37:	89 f6 	movl	%esi, %esi
  401c39:	8d bc 27 00 00 00 00 	leal	(%edi), %edi
  401c40:	8b 04 9d 14 90 40 00 	movl	4231188(,%ebx,4), %eax
  401c47:	85 c0 	testl	%eax, %eax
  401c49:	74 02 	je	2 <___dyn_tls_init@12+0x5D>
  401c4b:	ff d0 	calll	*%eax
  401c4d:	83 c3 01 	addl	$1, %ebx
  401c50:	39 de 	cmpl	%ebx, %esi
  401c52:	75 ec 	jne	-20 <___dyn_tls_init@12+0x50>
  401c54:	83 c4 14 	addl	$20, %esp
  401c57:	b8 01 00 00 00 	movl	$1, %eax
  401c5c:	5b 	popl	%ebx
  401c5d:	5e 	popl	%esi
  401c5e:	c2 0c 00 	retl	$12
  401c61:	8b 44 24 28 	movl	40(%esp), %eax
  401c65:	c7 44 24 04 01 00 00 00 	movl	$1, 4(%esp)
  401c6d:	89 44 24 08 	movl	%eax, 8(%esp)
  401c71:	8b 44 24 20 	movl	32(%esp), %eax
  401c75:	89 04 24 	movl	%eax, (%esp)
  401c78:	e8 93 01 00 00 	calll	403 <___mingw_TLScallback>
  401c7d:	eb 97 	jmp	-105 <___dyn_tls_init@12+0x26>
  401c7f:	90 	nop

___tlregdtor:
  401c80:	31 c0 	xorl	%eax, %eax
  401c82:	c3 	retl
  401c83:	90 	nop
  401c84:	90 	nop
  401c85:	90 	nop
  401c86:	90 	nop
  401c87:	90 	nop
  401c88:	90 	nop
  401c89:	90 	nop
  401c8a:	90 	nop
  401c8b:	90 	nop
  401c8c:	90 	nop
  401c8d:	90 	nop
  401c8e:	90 	nop
  401c8f:	90 	nop

.text:
  401c90:	56 	pushl	%esi
  401c91:	53 	pushl	%ebx
  401c92:	83 ec 14 	subl	$20, %esp
  401c95:	c7 04 24 44 70 40 00 	movl	$4223044, (%esp)
  401c9c:	e8 3f 20 00 00 	calll	8255 <_EnterCriticalSection@4>
  401ca1:	8b 1d 3c 70 40 00 	movl	4223036, %ebx
  401ca7:	83 ec 04 	subl	$4, %esp
  401caa:	85 db 	testl	%ebx, %ebx
  401cac:	74 2d 	je	45 <.text+0x4B>
  401cae:	66 90 	nop
  401cb0:	8b 03 	movl	(%ebx), %eax
  401cb2:	89 04 24 	movl	%eax, (%esp)
  401cb5:	e8 b6 1f 00 00 	calll	8118 <_TlsGetValue@4>
  401cba:	83 ec 04 	subl	$4, %esp
  401cbd:	89 c6 	movl	%eax, %esi
  401cbf:	e8 e4 1f 00 00 	calll	8164 <_GetLastError@0>
  401cc4:	85 c0 	testl	%eax, %eax
  401cc6:	75 0c 	jne	12 <.text+0x44>
  401cc8:	85 f6 	testl	%esi, %esi
  401cca:	74 08 	je	8 <.text+0x44>
  401ccc:	8b 43 04 	movl	4(%ebx), %eax
  401ccf:	89 34 24 	movl	%esi, (%esp)
  401cd2:	ff d0 	calll	*%eax
  401cd4:	8b 5b 08 	movl	8(%ebx), %ebx
  401cd7:	85 db 	testl	%ebx, %ebx
  401cd9:	75 d5 	jne	-43 <.text+0x20>
  401cdb:	c7 04 24 44 70 40 00 	movl	$4223044, (%esp)
  401ce2:	e8 a1 1f 00 00 	calll	8097 <_LeaveCriticalSection@4>
  401ce7:	83 ec 04 	subl	$4, %esp
  401cea:	83 c4 14 	addl	$20, %esp
  401ced:	5b 	popl	%ebx
  401cee:	5e 	popl	%esi
  401cef:	c3 	retl

____w64_mingwthr_add_key_dtor:
  401cf0:	a1 40 70 40 00 	movl	4223040, %eax
  401cf5:	85 c0 	testl	%eax, %eax
  401cf7:	75 07 	jne	7 <____w64_mingwthr_add_key_dtor+0x10>
  401cf9:	c3 	retl
  401cfa:	8d b6 00 00 00 00 	leal	(%esi), %esi
  401d00:	53 	pushl	%ebx
  401d01:	83 ec 18 	subl	$24, %esp
  401d04:	c7 44 24 04 0c 00 00 00 	movl	$12, 4(%esp)
  401d0c:	c7 04 24 01 00 00 00 	movl	$1, (%esp)
  401d13:	e8 f8 1e 00 00 	calll	7928 <_calloc>
  401d18:	85 c0 	testl	%eax, %eax
  401d1a:	89 c3 	movl	%eax, %ebx
  401d1c:	74 40 	je	64 <____w64_mingwthr_add_key_dtor+0x6E>
  401d1e:	8b 44 24 20 	movl	32(%esp), %eax
  401d22:	c7 04 24 44 70 40 00 	movl	$4223044, (%esp)
  401d29:	89 03 	movl	%eax, (%ebx)
  401d2b:	8b 44 24 24 	movl	36(%esp), %eax
  401d2f:	89 43 04 	movl	%eax, 4(%ebx)
  401d32:	e8 a9 1f 00 00 	calll	8105 <_EnterCriticalSection@4>
  401d37:	a1 3c 70 40 00 	movl	4223036, %eax
  401d3c:	83 ec 04 	subl	$4, %esp
  401d3f:	89 1d 3c 70 40 00 	movl	%ebx, 4223036
  401d45:	c7 04 24 44 70 40 00 	movl	$4223044, (%esp)
  401d4c:	89 43 08 	movl	%eax, 8(%ebx)
  401d4f:	e8 34 1f 00 00 	calll	7988 <_LeaveCriticalSection@4>
  401d54:	31 c0 	xorl	%eax, %eax
  401d56:	83 ec 04 	subl	$4, %esp
  401d59:	83 c4 18 	addl	$24, %esp
  401d5c:	5b 	popl	%ebx
  401d5d:	c3 	retl
  401d5e:	b8 ff ff ff ff 	movl	$4294967295, %eax
  401d63:	eb f4 	jmp	-12 <____w64_mingwthr_add_key_dtor+0x69>
  401d65:	8d 74 26 00 	leal	(%esi), %esi
  401d69:	8d bc 27 00 00 00 00 	leal	(%edi), %edi

____w64_mingwthr_remove_key_dtor:
  401d70:	53 	pushl	%ebx
  401d71:	83 ec 18 	subl	$24, %esp
  401d74:	a1 40 70 40 00 	movl	4223040, %eax
  401d79:	8b 5c 24 20 	movl	32(%esp), %ebx
  401d7d:	85 c0 	testl	%eax, %eax
  401d7f:	75 0f 	jne	15 <____w64_mingwthr_remove_key_dtor+0x20>
  401d81:	83 c4 18 	addl	$24, %esp
  401d84:	31 c0 	xorl	%eax, %eax
  401d86:	5b 	popl	%ebx
  401d87:	c3 	retl
  401d88:	90 	nop
  401d89:	8d b4 26 00 00 00 00 	leal	(%esi), %esi
  401d90:	c7 04 24 44 70 40 00 	movl	$4223044, (%esp)
  401d97:	e8 44 1f 00 00 	calll	8004 <_EnterCriticalSection@4>
  401d9c:	8b 15 3c 70 40 00 	movl	4223036, %edx
  401da2:	83 ec 04 	subl	$4, %esp
  401da5:	85 d2 	testl	%edx, %edx
  401da7:	74 17 	je	23 <____w64_mingwthr_remove_key_dtor+0x50>
  401da9:	8b 02 	movl	(%edx), %eax
  401dab:	39 c3 	cmpl	%eax, %ebx
  401dad:	75 0a 	jne	10 <____w64_mingwthr_remove_key_dtor+0x49>
  401daf:	eb 4e 	jmp	78 <____w64_mingwthr_remove_key_dtor+0x8F>
  401db1:	8b 08 	movl	(%eax), %ecx
  401db3:	39 d9 	cmpl	%ebx, %ecx
  401db5:	74 29 	je	41 <____w64_mingwthr_remove_key_dtor+0x70>
  401db7:	89 c2 	movl	%eax, %edx
  401db9:	8b 42 08 	movl	8(%edx), %eax
  401dbc:	85 c0 	testl	%eax, %eax
  401dbe:	75 f1 	jne	-15 <____w64_mingwthr_remove_key_dtor+0x41>
  401dc0:	c7 04 24 44 70 40 00 	movl	$4223044, (%esp)
  401dc7:	e8 bc 1e 00 00 	calll	7868 <_LeaveCriticalSection@4>
  401dcc:	83 ec 04 	subl	$4, %esp
  401dcf:	83 c4 18 	addl	$24, %esp
  401dd2:	31 c0 	xorl	%eax, %eax
  401dd4:	5b 	popl	%ebx
  401dd5:	c3 	retl
  401dd6:	8d 76 00 	leal	(%esi), %esi
  401dd9:	8d bc 27 00 00 00 00 	leal	(%edi), %edi
  401de0:	8b 48 08 	movl	8(%eax), %ecx
  401de3:	89 4a 08 	movl	%ecx, 8(%edx)
  401de6:	89 04 24 	movl	%eax, (%esp)
  401de9:	e8 1a 1e 00 00 	calll	7706 <_free>
  401dee:	c7 04 24 44 70 40 00 	movl	$4223044, (%esp)
  401df5:	e8 8e 1e 00 00 	calll	7822 <_LeaveCriticalSection@4>
  401dfa:	83 ec 04 	subl	$4, %esp
  401dfd:	eb d0 	jmp	-48 <____w64_mingwthr_remove_key_dtor+0x5F>
  401dff:	8b 42 08 	movl	8(%edx), %eax
  401e02:	a3 3c 70 40 00 	movl	%eax, 4223036
  401e07:	89 d0 	movl	%edx, %eax
  401e09:	eb db 	jmp	-37 <____w64_mingwthr_remove_key_dtor+0x76>
  401e0b:	90 	nop
  401e0c:	8d 74 26 00 	leal	(%esi), %esi

___mingw_TLScallback:
  401e10:	83 ec 1c 	subl	$28, %esp
  401e13:	8b 44 24 24 	movl	36(%esp), %eax
  401e17:	83 f8 01 	cmpl	$1, %eax
  401e1a:	74 47 	je	71 <___mingw_TLScallback+0x53>
  401e1c:	72 17 	jb	23 <___mingw_TLScallback+0x25>
  401e1e:	83 f8 03 	cmpl	$3, %eax
  401e21:	75 09 	jne	9 <___mingw_TLScallback+0x1C>
  401e23:	a1 40 70 40 00 	movl	4223040, %eax
  401e28:	85 c0 	testl	%eax, %eax
  401e2a:	75 65 	jne	101 <___mingw_TLScallback+0x81>
  401e2c:	b8 01 00 00 00 	movl	$1, %eax
  401e31:	83 c4 1c 	addl	$28, %esp
  401e34:	c3 	retl
  401e35:	a1 40 70 40 00 	movl	4223040, %eax
  401e3a:	85 c0 	testl	%eax, %eax
  401e3c:	75 62 	jne	98 <___mingw_TLScallback+0x90>
  401e3e:	a1 40 70 40 00 	movl	4223040, %eax
  401e43:	83 f8 01 	cmpl	$1, %eax
  401e46:	75 e4 	jne	-28 <___mingw_TLScallback+0x1C>
  401e48:	c7 04 24 44 70 40 00 	movl	$4223044, (%esp)
  401e4f:	c7 05 40 70 40 00 00 00 00 00 	movl	$0, 4223040
  401e59:	e8 8a 1e 00 00 	calll	7818 <_DeleteCriticalSection@4>
  401e5e:	83 ec 04 	subl	$4, %esp
  401e61:	eb c9 	jmp	-55 <___mingw_TLScallback+0x1C>
  401e63:	a1 40 70 40 00 	movl	4223040, %eax
  401e68:	85 c0 	testl	%eax, %eax
  401e6a:	74 14 	je	20 <___mingw_TLScallback+0x70>
  401e6c:	c7 05 40 70 40 00 01 00 00 00 	movl	$1, 4223040
  401e76:	b8 01 00 00 00 	movl	$1, %eax
  401e7b:	83 c4 1c 	addl	$28, %esp
  401e7e:	c3 	retl
  401e7f:	90 	nop
  401e80:	c7 04 24 44 70 40 00 	movl	$4223044, (%esp)
  401e87:	e8 04 1e 00 00 	calll	7684 <_InitializeCriticalSection@4>
  401e8c:	83 ec 04 	subl	$4, %esp
  401e8f:	eb db 	jmp	-37 <___mingw_TLScallback+0x5C>
  401e91:	e8 fa fd ff ff 	calll	-518 <.text>
  401e96:	eb 94 	jmp	-108 <___mingw_TLScallback+0x1C>
  401e98:	90 	nop
  401e99:	8d b4 26 00 00 00 00 	leal	(%esi), %esi
  401ea0:	e8 eb fd ff ff 	calll	-533 <.text>
  401ea5:	eb 97 	jmp	-105 <___mingw_TLScallback+0x2E>
  401ea7:	90 	nop
  401ea8:	90 	nop
  401ea9:	90 	nop
  401eaa:	90 	nop
  401eab:	90 	nop
  401eac:	90 	nop
  401ead:	90 	nop
  401eae:	90 	nop
  401eaf:	90 	nop

.text:
  401eb0:	56 	pushl	%esi
  401eb1:	53 	pushl	%ebx
  401eb2:	83 ec 14 	subl	$20, %esp
  401eb5:	a1 a4 81 40 00 	movl	4227492, %eax
  401eba:	c7 44 24 08 17 00 00 00 	movl	$23, 8(%esp)
  401ec2:	c7 44 24 04 01 00 00 00 	movl	$1, 4(%esp)
  401eca:	8d 74 24 24 	leal	36(%esp), %esi
  401ece:	c7 04 24 68 50 40 00 	movl	$4214888, (%esp)
  401ed5:	8d 58 40 	leal	64(%eax), %ebx
  401ed8:	89 5c 24 0c 	movl	%ebx, 12(%esp)
  401edc:	e8 1f 1d 00 00 	calll	7455 <_fwrite>
  401ee1:	8b 44 24 20 	movl	32(%esp), %eax
  401ee5:	89 74 24 08 	movl	%esi, 8(%esp)
  401ee9:	89 1c 24 	movl	%ebx, (%esp)
  401eec:	89 44 24 04 	movl	%eax, 4(%esp)
  401ef0:	e8 b3 1c 00 00 	calll	7347 <_vfprintf>
  401ef5:	e8 1e 1d 00 00 	calll	7454 <_abort>
  401efa:	8d b6 00 00 00 00 	leal	(%esi), %esi
  401f00:	55 	pushl	%ebp
  401f01:	57 	pushl	%edi
  401f02:	89 cf 	movl	%ecx, %edi
  401f04:	56 	pushl	%esi
  401f05:	53 	pushl	%ebx
  401f06:	89 c3 	movl	%eax, %ebx
  401f08:	89 d6 	movl	%edx, %esi
  401f0a:	83 ec 4c 	subl	$76, %esp
  401f0d:	8d 44 24 24 	leal	36(%esp), %eax
  401f11:	c7 44 24 08 1c 00 00 00 	movl	$28, 8(%esp)
  401f19:	89 1c 24 	movl	%ebx, (%esp)
  401f1c:	89 44 24 04 	movl	%eax, 4(%esp)
  401f20:	e8 3b 1d 00 00 	calll	7483 <_VirtualQuery@12>
  401f25:	83 ec 0c 	subl	$12, %esp
  401f28:	85 c0 	testl	%eax, %eax
  401f2a:	0f 84 a8 00 00 00 	je	168 <.text+0x128>
  401f30:	8b 44 24 38 	movl	56(%esp), %eax
  401f34:	83 f8 40 	cmpl	$64, %eax
  401f37:	74 05 	je	5 <.text+0x8E>
  401f39:	83 f8 04 	cmpl	$4, %eax
  401f3c:	75 22 	jne	34 <.text+0xB0>
  401f3e:	89 7c 24 08 	movl	%edi, 8(%esp)
  401f42:	89 74 24 04 	movl	%esi, 4(%esp)
  401f46:	89 1c 24 	movl	%ebx, (%esp)
  401f49:	e8 9a 1c 00 00 	calll	7322 <_memcpy>
  401f4e:	83 c4 4c 	addl	$76, %esp
  401f51:	5b 	popl	%ebx
  401f52:	5e 	popl	%esi
  401f53:	5f 	popl	%edi
  401f54:	5d 	popl	%ebp
  401f55:	c3 	retl
  401f56:	8d 76 00 	leal	(%esi), %esi
  401f59:	8d bc 27 00 00 00 00 	leal	(%edi), %edi
  401f60:	8b 44 24 30 	movl	48(%esp), %eax
  401f64:	8d 6c 24 20 	leal	32(%esp), %ebp
  401f68:	c7 44 24 08 40 00 00 00 	movl	$64, 8(%esp)
  401f70:	89 6c 24 0c 	movl	%ebp, 12(%esp)
  401f74:	89 44 24 04 	movl	%eax, 4(%esp)
  401f78:	8b 44 24 24 	movl	36(%esp), %eax
  401f7c:	89 04 24 	movl	%eax, (%esp)
  401f7f:	e8 e4 1c 00 00 	calll	7396 <_VirtualProtect@16>
  401f84:	83 ec 10 	subl	$16, %esp
  401f87:	8b 54 24 38 	movl	56(%esp), %edx
  401f8b:	89 7c 24 08 	movl	%edi, 8(%esp)
  401f8f:	89 74 24 04 	movl	%esi, 4(%esp)
  401f93:	89 1c 24 	movl	%ebx, (%esp)
  401f96:	89 54 24 1c 	movl	%edx, 28(%esp)
  401f9a:	e8 49 1c 00 00 	calll	7241 <_memcpy>
  401f9f:	8b 54 24 1c 	movl	28(%esp), %edx
  401fa3:	83 fa 40 	cmpl	$64, %edx
  401fa6:	74 a6 	je	-90 <.text+0x9E>
  401fa8:	83 fa 04 	cmpl	$4, %edx
  401fab:	74 a1 	je	-95 <.text+0x9E>
  401fad:	8b 44 24 20 	movl	32(%esp), %eax
  401fb1:	89 6c 24 0c 	movl	%ebp, 12(%esp)
  401fb5:	89 44 24 08 	movl	%eax, 8(%esp)
  401fb9:	8b 44 24 30 	movl	48(%esp), %eax
  401fbd:	89 44 24 04 	movl	%eax, 4(%esp)
  401fc1:	8b 44 24 24 	movl	36(%esp), %eax
  401fc5:	89 04 24 	movl	%eax, (%esp)
  401fc8:	e8 9b 1c 00 00 	calll	7323 <_VirtualProtect@16>
  401fcd:	83 ec 10 	subl	$16, %esp
  401fd0:	83 c4 4c 	addl	$76, %esp
  401fd3:	5b 	popl	%ebx
  401fd4:	5e 	popl	%esi
  401fd5:	5f 	popl	%edi
  401fd6:	5d 	popl	%ebp
  401fd7:	c3 	retl
  401fd8:	89 5c 24 08 	movl	%ebx, 8(%esp)
  401fdc:	c7 44 24 04 1c 00 00 00 	movl	$28, 4(%esp)
  401fe4:	c7 04 24 80 50 40 00 	movl	$4214912, (%esp)
  401feb:	e8 c0 fe ff ff 	calll	-320 <.text>

__pei386_runtime_relocator:
  401ff0:	a1 5c 70 40 00 	movl	4223068, %eax
  401ff5:	85 c0 	testl	%eax, %eax
  401ff7:	74 07 	je	7 <__pei386_runtime_relocator+0x10>
  401ff9:	c3 	retl
  401ffa:	8d b6 00 00 00 00 	leal	(%esi), %esi
  402000:	b8 d4 52 40 00 	movl	$4215508, %eax
  402005:	c7 05 5c 70 40 00 01 00 00 00 	movl	$1, 4223068
  40200f:	2d d4 52 40 00 	subl	$4215508, %eax
  402014:	83 f8 07 	cmpl	$7, %eax
  402017:	7e e0 	jle	-32 <__pei386_runtime_relocator+0x9>
  402019:	57 	pushl	%edi
  40201a:	56 	pushl	%esi
  40201b:	53 	pushl	%ebx
  40201c:	83 ec 20 	subl	$32, %esp
  40201f:	83 f8 0b 	cmpl	$11, %eax
  402022:	0f 8e e8 00 00 00 	jle	232 <__pei386_runtime_relocator+0x120>
  402028:	8b 35 d4 52 40 00 	movl	4215508, %esi
  40202e:	85 f6 	testl	%esi, %esi
  402030:	0f 85 8f 00 00 00 	jne	143 <__pei386_runtime_relocator+0xD5>
  402036:	8b 1d d8 52 40 00 	movl	4215512, %ebx
  40203c:	85 db 	testl	%ebx, %ebx
  40203e:	0f 85 81 00 00 00 	jne	129 <__pei386_runtime_relocator+0xD5>
  402044:	8b 0d dc 52 40 00 	movl	4215516, %ecx
  40204a:	bb e0 52 40 00 	movl	$4215520, %ebx
  40204f:	85 c9 	testl	%ecx, %ecx
  402051:	0f 84 be 00 00 00 	je	190 <__pei386_runtime_relocator+0x125>
  402057:	bb d4 52 40 00 	movl	$4215508, %ebx
  40205c:	8b 43 08 	movl	8(%ebx), %eax
  40205f:	83 f8 01 	cmpl	$1, %eax
  402062:	0f 85 43 01 00 00 	jne	323 <__pei386_runtime_relocator+0x1BB>
  402068:	83 c3 0c 	addl	$12, %ebx
  40206b:	81 fb d4 52 40 00 	cmpl	$4215508, %ebx
  402071:	0f 83 89 00 00 00 	jae	137 <__pei386_runtime_relocator+0x110>
  402077:	8b 13 	movl	(%ebx), %edx
  402079:	8b 7b 04 	movl	4(%ebx), %edi
  40207c:	8d b2 00 00 40 00 	leal	4194304(%edx), %esi
  402082:	8b 8a 00 00 40 00 	movl	4194304(%edx), %ecx
  402088:	0f b6 53 08 	movzbl	8(%ebx), %edx
  40208c:	8d 87 00 00 40 00 	leal	4194304(%edi), %eax
  402092:	83 fa 10 	cmpl	$16, %edx
  402095:	0f 84 95 00 00 00 	je	149 <__pei386_runtime_relocator+0x140>
  40209b:	83 fa 20 	cmpl	$32, %edx
  40209e:	0f 84 ec 00 00 00 	je	236 <__pei386_runtime_relocator+0x1A0>
  4020a4:	83 fa 08 	cmpl	$8, %edx
  4020a7:	0f 84 b3 00 00 00 	je	179 <__pei386_runtime_relocator+0x170>
  4020ad:	89 54 24 04 	movl	%edx, 4(%esp)
  4020b1:	c7 04 24 e8 50 40 00 	movl	$4215016, (%esp)
  4020b8:	c7 44 24 1c 00 00 00 00 	movl	$0, 28(%esp)
  4020c0:	e8 eb fd ff ff 	calll	-533 <.text>
  4020c5:	bb d4 52 40 00 	movl	$4215508, %ebx
  4020ca:	81 fb d4 52 40 00 	cmpl	$4215508, %ebx
  4020d0:	73 2e 	jae	46 <__pei386_runtime_relocator+0x110>
  4020d2:	8b 4b 04 	movl	4(%ebx), %ecx
  4020d5:	8b 13 	movl	(%ebx), %edx
  4020d7:	83 c3 08 	addl	$8, %ebx
  4020da:	03 91 00 00 40 00 	addl	4194304(%ecx), %edx
  4020e0:	8d 81 00 00 40 00 	leal	4194304(%ecx), %eax
  4020e6:	b9 04 00 00 00 	movl	$4, %ecx
  4020eb:	89 54 24 1c 	movl	%edx, 28(%esp)
  4020ef:	8d 54 24 1c 	leal	28(%esp), %edx
  4020f3:	e8 08 fe ff ff 	calll	-504 <.text+0x50>
  4020f8:	81 fb d4 52 40 00 	cmpl	$4215508, %ebx
  4020fe:	72 d2 	jb	-46 <__pei386_runtime_relocator+0xE2>
  402100:	83 c4 20 	addl	$32, %esp
  402103:	5b 	popl	%ebx
  402104:	5e 	popl	%esi
  402105:	5f 	popl	%edi
  402106:	c3 	retl
  402107:	89 f6 	movl	%esi, %esi
  402109:	8d bc 27 00 00 00 00 	leal	(%edi), %edi
  402110:	bb d4 52 40 00 	movl	$4215508, %ebx
  402115:	8b 13 	movl	(%ebx), %edx
  402117:	85 d2 	testl	%edx, %edx
  402119:	75 af 	jne	-81 <__pei386_runtime_relocator+0xDA>
  40211b:	8b 43 04 	movl	4(%ebx), %eax
  40211e:	85 c0 	testl	%eax, %eax
  402120:	0f 84 36 ff ff ff 	je	-202 <__pei386_runtime_relocator+0x6C>
  402126:	eb a2 	jmp	-94 <__pei386_runtime_relocator+0xDA>
  402128:	90 	nop
  402129:	8d b4 26 00 00 00 00 	leal	(%esi), %esi
  402130:	0f b7 97 00 00 40 00 	movzwl	4194304(%edi), %edx
  402137:	66 85 d2 	testw	%dx, %dx
  40213a:	79 06 	jns	6 <__pei386_runtime_relocator+0x152>
  40213c:	81 ca 00 00 ff ff 	orl	$4294901760, %edx
  402142:	29 f2 	subl	%esi, %edx
  402144:	01 d1 	addl	%edx, %ecx
  402146:	8d 54 24 1c 	leal	28(%esp), %edx
  40214a:	89 4c 24 1c 	movl	%ecx, 28(%esp)
  40214e:	b9 02 00 00 00 	movl	$2, %ecx
  402153:	e8 a8 fd ff ff 	calll	-600 <.text+0x50>
  402158:	e9 0b ff ff ff 	jmp	-245 <__pei386_runtime_relocator+0x78>
  40215d:	8d 76 00 	leal	(%esi), %esi
  402160:	0f b6 38 	movzbl	(%eax), %edi
  402163:	89 fa 	movl	%edi, %edx
  402165:	84 d2 	testb	%dl, %dl
  402167:	79 06 	jns	6 <__pei386_runtime_relocator+0x17F>
  402169:	81 cf 00 ff ff ff 	orl	$4294967040, %edi
  40216f:	29 f7 	subl	%esi, %edi
  402171:	8d 54 24 1c 	leal	28(%esp), %edx
  402175:	01 f9 	addl	%edi, %ecx
  402177:	89 4c 24 1c 	movl	%ecx, 28(%esp)
  40217b:	b9 01 00 00 00 	movl	$1, %ecx
  402180:	e8 7b fd ff ff 	calll	-645 <.text+0x50>
  402185:	e9 de fe ff ff 	jmp	-290 <__pei386_runtime_relocator+0x78>
  40218a:	8d b6 00 00 00 00 	leal	(%esi), %esi
  402190:	29 f1 	subl	%esi, %ecx
  402192:	03 08 	addl	(%eax), %ecx
  402194:	8d 54 24 1c 	leal	28(%esp), %edx
  402198:	89 4c 24 1c 	movl	%ecx, 28(%esp)
  40219c:	b9 04 00 00 00 	movl	$4, %ecx
  4021a1:	e8 5a fd ff ff 	calll	-678 <.text+0x50>
  4021a6:	e9 bd fe ff ff 	jmp	-323 <__pei386_runtime_relocator+0x78>
  4021ab:	89 44 24 04 	movl	%eax, 4(%esp)
  4021af:	c7 04 24 b4 50 40 00 	movl	$4214964, (%esp)
  4021b6:	e8 f5 fc ff ff 	calll	-779 <.text>
  4021bb:	90 	nop
  4021bc:	90 	nop
  4021bd:	90 	nop
  4021be:	90 	nop
  4021bf:	90 	nop

___chkstk_ms:
  4021c0:	51 	pushl	%ecx
  4021c1:	50 	pushl	%eax
  4021c2:	3d 00 10 00 00 	cmpl	$4096, %eax
  4021c7:	8d 4c 24 0c 	leal	12(%esp), %ecx
  4021cb:	72 15 	jb	21 <___chkstk_ms+0x22>
  4021cd:	81 e9 00 10 00 00 	subl	$4096, %ecx
  4021d3:	83 09 00 	orl	$0, (%ecx)
  4021d6:	2d 00 10 00 00 	subl	$4096, %eax
  4021db:	3d 00 10 00 00 	cmpl	$4096, %eax
  4021e0:	77 eb 	ja	-21 <___chkstk_ms+0xD>
  4021e2:	29 c1 	subl	%eax, %ecx
  4021e4:	83 09 00 	orl	$0, (%ecx)
  4021e7:	58 	popl	%eax
  4021e8:	59 	popl	%ecx
  4021e9:	c3 	retl
  4021ea:	90 	nop
  4021eb:	90 	nop

.text:
  4021ec:	66 90 	nop
  4021ee:	66 90 	nop

_fesetenv:
  4021f0:	83 ec 1c 	subl	$28, %esp
  4021f3:	8b 44 24 20 	movl	32(%esp), %eax
  4021f7:	c7 44 24 0c 80 1f 00 00 	movl	$8064, 12(%esp)
  4021ff:	83 f8 fd 	cmpl	$-3, %eax
  402202:	74 31 	je	49 <_fesetenv+0x45>
  402204:	83 f8 fc 	cmpl	$-4, %eax
  402207:	74 3a 	je	58 <_fesetenv+0x53>
  402209:	85 c0 	testl	%eax, %eax
  40220b:	74 48 	je	72 <_fesetenv+0x65>
  40220d:	83 f8 ff 	cmpl	$-1, %eax
  402210:	74 2d 	je	45 <_fesetenv+0x4F>
  402212:	83 f8 fe 	cmpl	$-2, %eax
  402215:	74 36 	je	54 <_fesetenv+0x5D>
  402217:	d9 20 	fldenv	(%eax)
  402219:	0f b7 40 1c 	movzwl	28(%eax), %eax
  40221d:	89 44 24 0c 	movl	%eax, 12(%esp)
  402221:	f6 05 24 70 40 00 10 	testb	$16, 4223012
  402228:	74 05 	je	5 <_fesetenv+0x3F>
  40222a:	0f ae 54 24 0c 	ldmxcsr	12(%esp)
  40222f:	31 c0 	xorl	%eax, %eax
  402231:	83 c4 1c 	addl	$28, %esp
  402234:	c3 	retl
  402235:	c7 05 14 40 40 00 ff ff ff ff 	movl	$4294967295, 4210708
  40223f:	db e3 	fninit
  402241:	eb de 	jmp	-34 <_fesetenv+0x31>
  402243:	c7 05 14 40 40 00 fe ff ff ff 	movl	$4294967294, 4210708
  40224d:	ff 15 9c 81 40 00 	calll	*4227484
  402253:	eb cc 	jmp	-52 <_fesetenv+0x31>
  402255:	a1 14 40 40 00 	movl	4210708, %eax
  40225a:	eb b1 	jmp	-79 <_fesetenv+0x1D>
  40225c:	90 	nop
  40225d:	90 	nop
  40225e:	90 	nop
  40225f:	90 	nop

.text:
  402260:	85 c0 	testl	%eax, %eax
  402262:	0f 84 80 00 00 00 	je	128 <.text+0x88>
  402268:	c1 ea 05 	shrl	$5, %edx
  40226b:	56 	pushl	%esi
  40226c:	53 	pushl	%ebx
  40226d:	83 f2 01 	xorl	$1, %edx
  402270:	31 db 	xorl	%ebx, %ebx
  402272:	83 e2 01 	andl	$1, %edx
  402275:	0f be 08 	movsbl	(%eax), %ecx
  402278:	85 c9 	testl	%ecx, %ecx
  40227a:	74 29 	je	41 <.text+0x45>
  40227c:	84 d2 	testb	%dl, %dl
  40227e:	74 05 	je	5 <.text+0x25>
  402280:	83 f9 7f 	cmpl	$127, %ecx
  402283:	74 4b 	je	75 <.text+0x70>
  402285:	83 c0 01 	addl	$1, %eax
  402288:	85 db 	testl	%ebx, %ebx
  40228a:	75 24 	jne	36 <.text+0x50>
  40228c:	83 f9 2a 	cmpl	$42, %ecx
  40228f:	74 4f 	je	79 <.text+0x80>
  402291:	83 f9 3f 	cmpl	$63, %ecx
  402294:	74 4a 	je	74 <.text+0x80>
  402296:	31 db 	xorl	%ebx, %ebx
  402298:	83 f9 5b 	cmpl	$91, %ecx
  40229b:	0f be 08 	movsbl	(%eax), %ecx
  40229e:	0f 94 c3 	sete	%bl
  4022a1:	85 c9 	testl	%ecx, %ecx
  4022a3:	75 d7 	jne	-41 <.text+0x1C>
  4022a5:	31 c0 	xorl	%eax, %eax
  4022a7:	5b 	popl	%ebx
  4022a8:	5e 	popl	%esi
  4022a9:	c3 	retl
  4022aa:	8d b6 00 00 00 00 	leal	(%esi), %esi
  4022b0:	83 fb 01 	cmpl	$1, %ebx
  4022b3:	7e 05 	jle	5 <.text+0x5A>
  4022b5:	83 f9 5d 	cmpl	$93, %ecx
  4022b8:	74 26 	je	38 <.text+0x80>
  4022ba:	83 f9 21 	cmpl	$33, %ecx
  4022bd:	0f 95 c1 	setne	%cl
  4022c0:	0f b6 c9 	movzbl	%cl, %ecx
  4022c3:	01 cb 	addl	%ecx, %ebx
  4022c5:	eb ae 	jmp	-82 <.text+0x15>
  4022c7:	89 f6 	movl	%esi, %esi
  4022c9:	8d bc 27 00 00 00 00 	leal	(%edi), %edi
  4022d0:	80 78 01 00 	cmpb	$0, 1(%eax)
  4022d4:	8d 70 02 	leal	2(%eax), %esi
  4022d7:	74 cc 	je	-52 <.text+0x45>
  4022d9:	89 f0 	movl	%esi, %eax
  4022db:	eb ab 	jmp	-85 <.text+0x28>
  4022dd:	8d 76 00 	leal	(%esi), %esi
  4022e0:	b8 01 00 00 00 	movl	$1, %eax
  4022e5:	5b 	popl	%ebx
  4022e6:	5e 	popl	%esi
  4022e7:	c3 	retl
  4022e8:	31 c0 	xorl	%eax, %eax
  4022ea:	c3 	retl
  4022eb:	90 	nop
  4022ec:	8d 74 26 00 	leal	(%esi), %esi
  4022f0:	85 c0 	testl	%eax, %eax
  4022f2:	74 5c 	je	92 <.text+0xF0>
  4022f4:	55 	pushl	%ebp
  4022f5:	57 	pushl	%edi
  4022f6:	89 c7 	movl	%eax, %edi
  4022f8:	56 	pushl	%esi
  4022f9:	53 	pushl	%ebx
  4022fa:	83 ec 1c 	subl	$28, %esp
  4022fd:	8b 40 0c 	movl	12(%eax), %eax
  402300:	8d 58 01 	leal	1(%eax), %ebx
  402303:	8d 34 9d 00 00 00 00 	leal	(,%ebx,4), %esi
  40230a:	89 34 24 	movl	%esi, (%esp)
  40230d:	e8 e6 18 00 00 	calll	6374 <_malloc>
  402312:	89 c5 	movl	%eax, %ebp
  402314:	89 47 08 	movl	%eax, 8(%edi)
  402317:	b8 03 00 00 00 	movl	$3, %eax
  40231c:	85 ed 	testl	%ebp, %ebp
  40231e:	74 28 	je	40 <.text+0xE8>
  402320:	85 db 	testl	%ebx, %ebx
  402322:	89 da 	movl	%ebx, %edx
  402324:	c7 47 04 00 00 00 00 	movl	$0, 4(%edi)
  40232b:	7e 19 	jle	25 <.text+0xE6>
  40232d:	8d 4e fc 	leal	-4(%esi), %ecx
  402330:	89 e8 	movl	%ebp, %eax
  402332:	eb 03 	jmp	3 <.text+0xD7>
  402334:	8b 47 08 	movl	8(%edi), %eax
  402337:	c7 04 08 00 00 00 00 	movl	$0, (%eax,%ecx)
  40233e:	83 e9 04 	subl	$4, %ecx
  402341:	83 ea 01 	subl	$1, %edx
  402344:	75 ee 	jne	-18 <.text+0xD4>
  402346:	31 c0 	xorl	%eax, %eax
  402348:	83 c4 1c 	addl	$28, %esp
  40234b:	5b 	popl	%ebx
  40234c:	5e 	popl	%esi
  40234d:	5f 	popl	%edi
  40234e:	5d 	popl	%ebp
  40234f:	c3 	retl
  402350:	31 c0 	xorl	%eax, %eax
  402352:	c3 	retl
  402353:	8d b6 00 00 00 00 	leal	(%esi), %esi
  402359:	8d bc 27 00 00 00 00 	leal	(%edi), %edi
  402360:	55 	pushl	%ebp
  402361:	57 	pushl	%edi
  402362:	56 	pushl	%esi
  402363:	53 	pushl	%ebx
  402364:	89 c6 	movl	%eax, %esi
  402366:	83 ec 3c 	subl	$60, %esp
  402369:	0f be 38 	movsbl	(%eax), %edi
  40236c:	89 54 24 1c 	movl	%edx, 28(%esp)
  402370:	89 4c 24 28 	movl	%ecx, 40(%esp)
  402374:	83 ff 5d 	cmpl	$93, %edi
  402377:	0f 84 63 01 00 00 	je	355 <.text+0x280>
  40237d:	83 ff 2d 	cmpl	$45, %edi
  402380:	89 fa 	movl	%edi, %edx
  402382:	0f 84 58 01 00 00 	je	344 <.text+0x280>
  402388:	8b 4c 24 1c 	movl	28(%esp), %ecx
  40238c:	8b 6c 24 28 	movl	40(%esp), %ebp
  402390:	89 c8 	movl	%ecx, %eax
  402392:	81 e5 00 40 00 00 	andl	$16384, %ebp
  402398:	f7 d0 	notl	%eax
  40239a:	89 44 24 24 	movl	%eax, 36(%esp)
  40239e:	b8 01 00 00 00 	movl	$1, %eax
  4023a3:	29 c8 	subl	%ecx, %eax
  4023a5:	89 44 24 2c 	movl	%eax, 44(%esp)
  4023a9:	eb 0f 	jmp	15 <.text+0x15A>
  4023ab:	90 	nop
  4023ac:	8d 74 26 00 	leal	(%esi), %esi
  4023b0:	89 fb 	movl	%edi, %ebx
  4023b2:	2b 5c 24 1c 	subl	28(%esp), %ebx
  4023b6:	85 db 	testl	%ebx, %ebx
  4023b8:	74 62 	je	98 <.text+0x1BC>
  4023ba:	0f be da 	movsbl	%dl, %ebx
  4023bd:	8d 4e 01 	leal	1(%esi), %ecx
  4023c0:	83 fb 5d 	cmpl	$93, %ebx
  4023c3:	0f 84 09 01 00 00 	je	265 <.text+0x272>
  4023c9:	83 fb 2d 	cmpl	$45, %ebx
  4023cc:	0f 84 80 00 00 00 	je	128 <.text+0x1F2>
  4023d2:	85 db 	testl	%ebx, %ebx
  4023d4:	0f 84 f8 00 00 00 	je	248 <.text+0x272>
  4023da:	83 fb 2f 	cmpl	$47, %ebx
  4023dd:	0f 84 ef 00 00 00 	je	239 <.text+0x272>
  4023e3:	83 fb 5c 	cmpl	$92, %ebx
  4023e6:	0f 84 e6 00 00 00 	je	230 <.text+0x272>
  4023ec:	0f b6 11 	movzbl	(%ecx), %edx
  4023ef:	89 ce 	movl	%ecx, %esi
  4023f1:	89 df 	movl	%ebx, %edi
  4023f3:	85 ed 	testl	%ebp, %ebp
  4023f5:	75 b9 	jne	-71 <.text+0x150>
  4023f7:	89 3c 24 	movl	%edi, (%esp)
  4023fa:	88 54 24 20 	movb	%dl, 32(%esp)
  4023fe:	e8 ad 17 00 00 	calll	6061 <_tolower>
  402403:	89 c3 	movl	%eax, %ebx
  402405:	8b 44 24 1c 	movl	28(%esp), %eax
  402409:	89 04 24 	movl	%eax, (%esp)
  40240c:	e8 9f 17 00 00 	calll	6047 <_tolower>
  402411:	29 c3 	subl	%eax, %ebx
  402413:	0f b6 54 24 20 	movzbl	32(%esp), %edx
  402418:	85 db 	testl	%ebx, %ebx
  40241a:	75 9e 	jne	-98 <.text+0x15A>
  40241c:	8b 44 24 28 	movl	40(%esp), %eax
  402420:	83 e0 20 	andl	$32, %eax
  402423:	eb 0e 	jmp	14 <.text+0x1D3>
  402425:	83 c6 01 	addl	$1, %esi
  402428:	84 d2 	testb	%dl, %dl
  40242a:	0f 84 a2 00 00 00 	je	162 <.text+0x272>
  402430:	0f b6 16 	movzbl	(%esi), %edx
  402433:	80 fa 5d 	cmpb	$93, %dl
  402436:	0f 84 39 01 00 00 	je	313 <.text+0x315>
  40243c:	80 fa 7f 	cmpb	$127, %dl
  40243f:	75 e4 	jne	-28 <.text+0x1C5>
  402441:	85 c0 	testl	%eax, %eax
  402443:	0f 85 37 01 00 00 	jne	311 <.text+0x320>
  402449:	0f b6 56 01 	movzbl	1(%esi), %edx
  40244d:	83 c6 01 	addl	$1, %esi
  402450:	eb d3 	jmp	-45 <.text+0x1C5>
  402452:	0f be 5e 01 	movsbl	1(%esi), %ebx
  402456:	80 fb 5d 	cmpb	$93, %bl
  402459:	0f 84 93 00 00 00 	je	147 <.text+0x292>
  40245f:	85 db 	testl	%ebx, %ebx
  402461:	74 6f 	je	111 <.text+0x272>
  402463:	39 df 	cmpl	%ebx, %edi
  402465:	8d 4e 02 	leal	2(%esi), %ecx
  402468:	0f 8d 1a 01 00 00 	jge	282 <.text+0x328>
  40246e:	89 f8 	movl	%edi, %eax
  402470:	89 4c 24 20 	movl	%ecx, 32(%esp)
  402474:	89 ef 	movl	%ebp, %edi
  402476:	eb 19 	jmp	25 <.text+0x231>
  402478:	90 	nop
  402479:	8d b4 26 00 00 00 00 	leal	(%esi), %esi
  402480:	8b 44 24 24 	movl	36(%esp), %eax
  402484:	8d 34 28 	leal	(%eax,%ebp), %esi
  402487:	85 f6 	testl	%esi, %esi
  402489:	74 29 	je	41 <.text+0x254>
  40248b:	39 eb 	cmpl	%ebp, %ebx
  40248d:	89 e8 	movl	%ebp, %eax
  40248f:	74 72 	je	114 <.text+0x2A3>
  402491:	85 ff 	testl	%edi, %edi
  402493:	8d 68 01 	leal	1(%eax), %ebp
  402496:	75 e8 	jne	-24 <.text+0x220>
  402498:	89 04 24 	movl	%eax, (%esp)
  40249b:	e8 10 17 00 00 	calll	5904 <_tolower>
  4024a0:	89 c6 	movl	%eax, %esi
  4024a2:	8b 44 24 1c 	movl	28(%esp), %eax
  4024a6:	89 04 24 	movl	%eax, (%esp)
  4024a9:	e8 02 17 00 00 	calll	5890 <_tolower>
  4024ae:	29 c6 	subl	%eax, %esi
  4024b0:	85 f6 	testl	%esi, %esi
  4024b2:	75 d7 	jne	-41 <.text+0x22B>
  4024b4:	8b 54 24 28 	movl	40(%esp), %edx
  4024b8:	8b 5c 24 20 	movl	32(%esp), %ebx
  4024bc:	83 e2 20 	andl	$32, %edx
  4024bf:	90 	nop
  4024c0:	0f b6 03 	movzbl	(%ebx), %eax
  4024c3:	3c 5d 	cmpb	$93, %al
  4024c5:	74 63 	je	99 <.text+0x2CA>
  4024c7:	3c 7f 	cmpb	$127, %al
  4024c9:	74 45 	je	69 <.text+0x2B0>
  4024cb:	83 c3 01 	addl	$1, %ebx
  4024ce:	84 c0 	testb	%al, %al
  4024d0:	75 ee 	jne	-18 <.text+0x260>
  4024d2:	83 c4 3c 	addl	$60, %esp
  4024d5:	31 c0 	xorl	%eax, %eax
  4024d7:	5b 	popl	%ebx
  4024d8:	5e 	popl	%esi
  4024d9:	5f 	popl	%edi
  4024da:	5d 	popl	%ebp
  4024db:	c3 	retl
  4024dc:	8d 74 26 00 	leal	(%esi), %esi
  4024e0:	3b 7c 24 1c 	cmpl	28(%esp), %edi
  4024e4:	74 4f 	je	79 <.text+0x2D5>
  4024e6:	0f b6 56 01 	movzbl	1(%esi), %edx
  4024ea:	83 c6 01 	addl	$1, %esi
  4024ed:	e9 96 fe ff ff 	jmp	-362 <.text+0x128>
  4024f2:	89 ce 	movl	%ecx, %esi
  4024f4:	bf 2d 00 00 00 	movl	$45, %edi
  4024f9:	ba 5d 00 00 00 	movl	$93, %edx
  4024fe:	e9 f0 fe ff ff 	jmp	-272 <.text+0x193>
  402503:	8b 4c 24 20 	movl	32(%esp), %ecx
  402507:	89 fd 	movl	%edi, %ebp
  402509:	e9 cc fe ff ff 	jmp	-308 <.text+0x17A>
  40250e:	66 90 	nop
  402510:	85 d2 	testl	%edx, %edx
  402512:	75 0c 	jne	12 <.text+0x2C0>
  402514:	0f b6 43 01 	movzbl	1(%ebx), %eax
  402518:	83 c3 01 	addl	$1, %ebx
  40251b:	eb ae 	jmp	-82 <.text+0x26B>
  40251d:	8d 76 00 	leal	(%esi), %esi
  402520:	83 c3 01 	addl	$1, %ebx
  402523:	0f b6 03 	movzbl	(%ebx), %eax
  402526:	3c 5d 	cmpb	$93, %al
  402528:	75 9d 	jne	-99 <.text+0x267>
  40252a:	83 c4 3c 	addl	$60, %esp
  40252d:	8d 43 01 	leal	1(%ebx), %eax
  402530:	5b 	popl	%ebx
  402531:	5e 	popl	%esi
  402532:	5f 	popl	%edi
  402533:	5d 	popl	%ebp
  402534:	c3 	retl
  402535:	8b 54 24 28 	movl	40(%esp), %edx
  402539:	83 c6 01 	addl	$1, %esi
  40253c:	83 e2 20 	andl	$32, %edx
  40253f:	90 	nop
  402540:	0f b6 06 	movzbl	(%esi), %eax
  402543:	3c 5d 	cmpb	$93, %al
  402545:	74 2e 	je	46 <.text+0x315>
  402547:	3c 7f 	cmpb	$127, %al
  402549:	74 15 	je	21 <.text+0x300>
  40254b:	83 c6 01 	addl	$1, %esi
  40254e:	84 c0 	testb	%al, %al
  402550:	75 ee 	jne	-18 <.text+0x2E0>
  402552:	e9 7b ff ff ff 	jmp	-133 <.text+0x272>
  402557:	89 f6 	movl	%esi, %esi
  402559:	8d bc 27 00 00 00 00 	leal	(%edi), %edi
  402560:	85 d2 	testl	%edx, %edx
  402562:	75 0c 	jne	12 <.text+0x310>
  402564:	0f b6 46 01 	movzbl	1(%esi), %eax
  402568:	83 c6 01 	addl	$1, %esi
  40256b:	eb de 	jmp	-34 <.text+0x2EB>
  40256d:	8d 76 00 	leal	(%esi), %esi
  402570:	83 c6 01 	addl	$1, %esi
  402573:	eb cb 	jmp	-53 <.text+0x2E0>
  402575:	83 c4 3c 	addl	$60, %esp
  402578:	8d 46 01 	leal	1(%esi), %eax
  40257b:	5b 	popl	%ebx
  40257c:	5e 	popl	%esi
  40257d:	5f 	popl	%edi
  40257e:	5d 	popl	%ebp
  40257f:	c3 	retl
  402580:	83 c6 01 	addl	$1, %esi
  402583:	e9 a8 fe ff ff 	jmp	-344 <.text+0x1D0>
  402588:	0f 8e 4c fe ff ff 	jle	-436 <.text+0x17A>
  40258e:	89 f8 	movl	%edi, %eax
  402590:	89 4c 24 20 	movl	%ecx, 32(%esp)
  402594:	89 ef 	movl	%ebp, %edi
  402596:	eb 1d 	jmp	29 <.text+0x355>
  402598:	90 	nop
  402599:	8d b4 26 00 00 00 00 	leal	(%esi), %esi
  4025a0:	8b 44 24 2c 	movl	44(%esp), %eax
  4025a4:	8d 34 28 	leal	(%eax,%ebp), %esi
  4025a7:	85 f6 	testl	%esi, %esi
  4025a9:	74 2d 	je	45 <.text+0x378>
  4025ab:	39 eb 	cmpl	%ebp, %ebx
  4025ad:	89 e8 	movl	%ebp, %eax
  4025af:	0f 84 4e ff ff ff 	je	-178 <.text+0x2A3>
  4025b5:	85 ff 	testl	%edi, %edi
  4025b7:	8d 68 ff 	leal	-1(%eax), %ebp
  4025ba:	75 e4 	jne	-28 <.text+0x340>
  4025bc:	89 04 24 	movl	%eax, (%esp)
  4025bf:	e8 ec 15 00 00 	calll	5612 <_tolower>
  4025c4:	89 c6 	movl	%eax, %esi
  4025c6:	8b 44 24 1c 	movl	28(%esp), %eax
  4025ca:	89 04 24 	movl	%eax, (%esp)
  4025cd:	e8 de 15 00 00 	calll	5598 <_tolower>
  4025d2:	29 c6 	subl	%eax, %esi
  4025d4:	85 f6 	testl	%esi, %esi
  4025d6:	75 d3 	jne	-45 <.text+0x34B>
  4025d8:	8b 54 24 28 	movl	40(%esp), %edx
  4025dc:	8b 5c 24 20 	movl	32(%esp), %ebx
  4025e0:	83 e2 20 	andl	$32, %edx
  4025e3:	0f b6 03 	movzbl	(%ebx), %eax
  4025e6:	3c 5d 	cmpb	$93, %al
  4025e8:	0f 84 3c ff ff ff 	je	-196 <.text+0x2CA>
  4025ee:	3c 7f 	cmpb	$127, %al
  4025f0:	74 0e 	je	14 <.text+0x3A0>
  4025f2:	83 c3 01 	addl	$1, %ebx
  4025f5:	84 c0 	testb	%al, %al
  4025f7:	75 ea 	jne	-22 <.text+0x383>
  4025f9:	e9 d4 fe ff ff 	jmp	-300 <.text+0x272>
  4025fe:	66 90 	nop
  402600:	85 d2 	testl	%edx, %edx
  402602:	75 0c 	jne	12 <.text+0x3B0>
  402604:	0f b6 43 01 	movzbl	1(%ebx), %eax
  402608:	83 c3 01 	addl	$1, %ebx
  40260b:	eb e5 	jmp	-27 <.text+0x392>
  40260d:	8d 76 00 	leal	(%esi), %esi
  402610:	83 c3 01 	addl	$1, %ebx
  402613:	eb ce 	jmp	-50 <.text+0x383>
  402615:	8d 74 26 00 	leal	(%esi), %esi
  402619:	8d bc 27 00 00 00 00 	leal	(%edi), %edi
  402620:	55 	pushl	%ebp
  402621:	57 	pushl	%edi
  402622:	89 c5 	movl	%eax, %ebp
  402624:	56 	pushl	%esi
  402625:	53 	pushl	%ebx
  402626:	83 ec 2c 	subl	$44, %esp
  402629:	80 3a 2e 	cmpb	$46, (%edx)
  40262c:	89 4c 24 14 	movl	%ecx, 20(%esp)
  402630:	0f 84 3a 01 00 00 	je	314 <.text+0x510>
  402636:	0f b6 08 	movzbl	(%eax), %ecx
  402639:	8b 44 24 14 	movl	20(%esp), %eax
  40263d:	8d 7a 01 	leal	1(%edx), %edi
  402640:	c1 e8 05 	shrl	$5, %eax
  402643:	83 f0 01 	xorl	$1, %eax
  402646:	89 44 24 18 	movl	%eax, 24(%esp)
  40264a:	0f be d1 	movsbl	%cl, %edx
  40264d:	8d 77 ff 	leal	-1(%edi), %esi
  402650:	8d 45 01 	leal	1(%ebp), %eax
  402653:	85 d2 	testl	%edx, %edx
  402655:	0f 84 73 01 00 00 	je	371 <.text+0x56E>
  40265b:	80 f9 3f 	cmpb	$63, %cl
  40265e:	0f 84 ef 00 00 00 	je	239 <.text+0x4F3>
  402664:	80 f9 5b 	cmpb	$91, %cl
  402667:	0f 84 b5 00 00 00 	je	181 <.text+0x4C2>
  40266d:	80 f9 2a 	cmpb	$42, %cl
  402670:	74 5e 	je	94 <.text+0x470>
  402672:	f6 44 24 18 01 	testb	$1, 24(%esp)
  402677:	74 09 	je	9 <.text+0x422>
  402679:	83 fa 7f 	cmpl	$127, %edx
  40267c:	0f 84 2e 01 00 00 	je	302 <.text+0x550>
  402682:	89 c5 	movl	%eax, %ebp
  402684:	0f be 5f ff 	movsbl	-1(%edi), %ebx
  402688:	84 db 	testb	%bl, %bl
  40268a:	0f 84 a0 01 00 00 	je	416 <.text+0x5D0>
  402690:	f7 44 24 14 00 40 00 00 	testl	$16384, 20(%esp)
  402698:	0f 85 c3 00 00 00 	jne	195 <.text+0x501>
  40269e:	89 14 24 	movl	%edx, (%esp)
  4026a1:	89 54 24 1c 	movl	%edx, 28(%esp)
  4026a5:	e8 06 15 00 00 	calll	5382 <_tolower>
  4026aa:	89 1c 24 	movl	%ebx, (%esp)
  4026ad:	89 c6 	movl	%eax, %esi
  4026af:	e8 fc 14 00 00 	calll	5372 <_tolower>
  4026b4:	8b 54 24 1c 	movl	28(%esp), %edx
  4026b8:	29 c6 	subl	%eax, %esi
  4026ba:	85 f6 	testl	%esi, %esi
  4026bc:	0f 84 85 00 00 00 	je	133 <.text+0x4E7>
  4026c2:	89 d0 	movl	%edx, %eax
  4026c4:	29 d8 	subl	%ebx, %eax
  4026c6:	83 c4 2c 	addl	$44, %esp
  4026c9:	5b 	popl	%ebx
  4026ca:	5e 	popl	%esi
  4026cb:	5f 	popl	%edi
  4026cc:	5d 	popl	%ebp
  4026cd:	c3 	retl
  4026ce:	66 90 	nop
  4026d0:	0f b6 55 01 	movzbl	1(%ebp), %edx
  4026d4:	89 c3 	movl	%eax, %ebx
  4026d6:	80 fa 2a 	cmpb	$42, %dl
  4026d9:	75 10 	jne	16 <.text+0x48B>
  4026db:	90 	nop
  4026dc:	8d 74 26 00 	leal	(%esi), %esi
  4026e0:	83 c3 01 	addl	$1, %ebx
  4026e3:	0f b6 13 	movzbl	(%ebx), %edx
  4026e6:	80 fa 2a 	cmpb	$42, %dl
  4026e9:	74 f5 	je	-11 <.text+0x480>
  4026eb:	31 c0 	xorl	%eax, %eax
  4026ed:	84 d2 	testb	%dl, %dl
  4026ef:	74 d5 	je	-43 <.text+0x466>
  4026f1:	8b 7c 24 14 	movl	20(%esp), %edi
  4026f5:	81 cf 00 00 01 00 	orl	$65536, %edi
  4026fb:	eb 0c 	jmp	12 <.text+0x4A9>
  4026fd:	8d 76 00 	leal	(%esi), %esi
  402700:	83 c6 01 	addl	$1, %esi
  402703:	80 7e ff 00 	cmpb	$0, -1(%esi)
  402707:	74 bd 	je	-67 <.text+0x466>
  402709:	89 f9 	movl	%edi, %ecx
  40270b:	89 f2 	movl	%esi, %edx
  40270d:	89 d8 	movl	%ebx, %eax
  40270f:	e8 0c ff ff ff 	calll	-244 <.text+0x3C0>
  402714:	85 c0 	testl	%eax, %eax
  402716:	75 e8 	jne	-24 <.text+0x4A0>
  402718:	83 c4 2c 	addl	$44, %esp
  40271b:	31 c0 	xorl	%eax, %eax
  40271d:	5b 	popl	%ebx
  40271e:	5e 	popl	%esi
  40271f:	5f 	popl	%edi
  402720:	5d 	popl	%ebp
  402721:	c3 	retl
  402722:	0f be 57 ff 	movsbl	-1(%edi), %edx
  402726:	85 d2 	testl	%edx, %edx
  402728:	0f 84 f8 00 00 00 	je	248 <.text+0x5C6>
  40272e:	80 7d 01 21 	cmpb	$33, 1(%ebp)
  402732:	74 5c 	je	92 <.text+0x530>
  402734:	8b 4c 24 14 	movl	20(%esp), %ecx
  402738:	e8 23 fc ff ff 	calll	-989 <.text+0x100>
  40273d:	89 c5 	movl	%eax, %ebp
  40273f:	85 ed 	testl	%ebp, %ebp
  402741:	0f 84 d5 00 00 00 	je	213 <.text+0x5BC>
  402747:	0f b6 4d 00 	movzbl	(%ebp), %ecx
  40274b:	83 c7 01 	addl	$1, %edi
  40274e:	e9 f7 fe ff ff 	jmp	-265 <.text+0x3EA>
  402753:	80 7f ff 00 	cmpb	$0, -1(%edi)
  402757:	0f 84 da 00 00 00 	je	218 <.text+0x5D7>
  40275d:	89 c5 	movl	%eax, %ebp
  40275f:	eb e6 	jmp	-26 <.text+0x4E7>
  402761:	89 d6 	movl	%edx, %esi
  402763:	29 de 	subl	%ebx, %esi
  402765:	e9 50 ff ff ff 	jmp	-176 <.text+0x45A>
  40276a:	8d b6 00 00 00 00 	leal	(%esi), %esi
  402770:	0f be 00 	movsbl	(%eax), %eax
  402773:	3c 2e 	cmpb	$46, %al
  402775:	74 4d 	je	77 <.text+0x564>
  402777:	89 c1 	movl	%eax, %ecx
  402779:	83 e8 2e 	subl	$46, %eax
  40277c:	f7 44 24 14 00 00 01 00 	testl	$65536, 20(%esp)
  402784:	0f 85 af fe ff ff 	jne	-337 <.text+0x3D9>
  40278a:	e9 37 ff ff ff 	jmp	-201 <.text+0x466>
  40278f:	90 	nop
  402790:	8d 5d 02 	leal	2(%ebp), %ebx
  402793:	8b 4c 24 14 	movl	20(%esp), %ecx
  402797:	89 d8 	movl	%ebx, %eax
  402799:	e8 c2 fb ff ff 	calll	-1086 <.text+0x100>
  40279e:	85 c0 	testl	%eax, %eax
  4027a0:	74 36 	je	54 <.text+0x578>
  4027a2:	89 dd 	movl	%ebx, %ebp
  4027a4:	eb a1 	jmp	-95 <.text+0x4E7>
  4027a6:	8d 76 00 	leal	(%esi), %esi
  4027a9:	8d bc 27 00 00 00 00 	leal	(%edi), %edi
  4027b0:	0f be 55 01 	movsbl	1(%ebp), %edx
  4027b4:	83 c5 02 	addl	$2, %ebp
  4027b7:	85 d2 	testl	%edx, %edx
  4027b9:	0f 85 c5 fe ff ff 	jne	-315 <.text+0x424>
  4027bf:	e9 be fe ff ff 	jmp	-322 <.text+0x422>
  4027c4:	b9 2e 00 00 00 	movl	$46, %ecx
  4027c9:	e9 6b fe ff ff 	jmp	-405 <.text+0x3D9>
  4027ce:	0f be 06 	movsbl	(%esi), %eax
  4027d1:	f7 d8 	negl	%eax
  4027d3:	e9 ee fe ff ff 	jmp	-274 <.text+0x466>
  4027d8:	0f b6 45 02 	movzbl	2(%ebp), %eax
  4027dc:	3c 5d 	cmpb	$93, %al
  4027de:	74 61 	je	97 <.text+0x5E1>
  4027e0:	8b 54 24 14 	movl	20(%esp), %edx
  4027e4:	83 e2 20 	andl	$32, %edx
  4027e7:	eb 11 	jmp	17 <.text+0x59A>
  4027e9:	8d b4 26 00 00 00 00 	leal	(%esi), %esi
  4027f0:	83 c3 01 	addl	$1, %ebx
  4027f3:	84 c0 	testb	%al, %al
  4027f5:	74 25 	je	37 <.text+0x5BC>
  4027f7:	0f b6 03 	movzbl	(%ebx), %eax
  4027fa:	3c 5d 	cmpb	$93, %al
  4027fc:	74 16 	je	22 <.text+0x5B4>
  4027fe:	3c 7f 	cmpb	$127, %al
  402800:	75 ee 	jne	-18 <.text+0x590>
  402802:	85 d2 	testl	%edx, %edx
  402804:	75 09 	jne	9 <.text+0x5AF>
  402806:	0f b6 43 01 	movzbl	1(%ebx), %eax
  40280a:	83 c3 01 	addl	$1, %ebx
  40280d:	eb e1 	jmp	-31 <.text+0x590>
  40280f:	83 c3 01 	addl	$1, %ebx
  402812:	eb e3 	jmp	-29 <.text+0x597>
  402814:	8d 6b 01 	leal	1(%ebx), %ebp
  402817:	e9 23 ff ff ff 	jmp	-221 <.text+0x4DF>
  40281c:	b8 5d 00 00 00 	movl	$93, %eax
  402821:	e9 a0 fe ff ff 	jmp	-352 <.text+0x466>
  402826:	b8 5b 00 00 00 	movl	$91, %eax
  40282b:	e9 96 fe ff ff 	jmp	-362 <.text+0x466>
  402830:	31 db 	xorl	%ebx, %ebx
  402832:	e9 8b fe ff ff 	jmp	-373 <.text+0x462>
  402837:	b8 3f 00 00 00 	movl	$63, %eax
  40283c:	e9 85 fe ff ff 	jmp	-379 <.text+0x466>
  402841:	8d 5d 03 	leal	3(%ebp), %ebx
  402844:	0f b6 45 03 	movzbl	3(%ebp), %eax
  402848:	eb 96 	jmp	-106 <.text+0x580>
  40284a:	8d b6 00 00 00 00 	leal	(%esi), %esi
  402850:	57 	pushl	%edi
  402851:	56 	pushl	%esi
  402852:	89 c6 	movl	%eax, %esi
  402854:	53 	pushl	%ebx
  402855:	89 d3 	movl	%edx, %ebx
  402857:	83 ec 10 	subl	$16, %esp
  40285a:	8b 42 0c 	movl	12(%edx), %eax
  40285d:	03 42 04 	addl	4(%edx), %eax
  402860:	8d 04 85 08 00 00 00 	leal	8(,%eax,4), %eax
  402867:	89 44 24 04 	movl	%eax, 4(%esp)
  40286b:	8b 42 08 	movl	8(%edx), %eax
  40286e:	89 04 24 	movl	%eax, (%esp)
  402871:	e8 6a 13 00 00 	calll	4970 <_realloc>
  402876:	85 c0 	testl	%eax, %eax
  402878:	74 29 	je	41 <.text+0x643>
  40287a:	8b 4b 04 	movl	4(%ebx), %ecx
  40287d:	8b 7b 0c 	movl	12(%ebx), %edi
  402880:	89 43 08 	movl	%eax, 8(%ebx)
  402883:	8d 51 01 	leal	1(%ecx), %edx
  402886:	01 f9 	addl	%edi, %ecx
  402888:	89 53 04 	movl	%edx, 4(%ebx)
  40288b:	89 34 88 	movl	%esi, (%eax,%ecx,4)
  40288e:	01 fa 	addl	%edi, %edx
  402890:	8b 43 08 	movl	8(%ebx), %eax
  402893:	c7 04 90 00 00 00 00 	movl	$0, (%eax,%edx,4)
  40289a:	83 c4 10 	addl	$16, %esp
  40289d:	31 c0 	xorl	%eax, %eax
  40289f:	5b 	popl	%ebx
  4028a0:	5e 	popl	%esi
  4028a1:	5f 	popl	%edi
  4028a2:	c3 	retl
  4028a3:	83 c4 10 	addl	$16, %esp
  4028a6:	b8 01 00 00 00 	movl	$1, %eax
  4028ab:	5b 	popl	%ebx
  4028ac:	5e 	popl	%esi
  4028ad:	5f 	popl	%edi
  4028ae:	c3 	retl
  4028af:	90 	nop
  4028b0:	56 	pushl	%esi
  4028b1:	53 	pushl	%ebx
  4028b2:	89 c3 	movl	%eax, %ebx
  4028b4:	89 d6 	movl	%edx, %esi
  4028b6:	83 ec 14 	subl	$20, %esp
  4028b9:	8b 00 	movl	(%eax), %eax
  4028bb:	85 c0 	testl	%eax, %eax
  4028bd:	74 05 	je	5 <.text+0x664>
  4028bf:	e8 ec ff ff ff 	calll	-20 <.text+0x650>
  4028c4:	8b 43 08 	movl	8(%ebx), %eax
  4028c7:	85 c0 	testl	%eax, %eax
  4028c9:	74 04 	je	4 <.text+0x66F>
  4028cb:	85 f6 	testl	%esi, %esi
  4028cd:	75 21 	jne	33 <.text+0x690>
  4028cf:	8b 43 04 	movl	4(%ebx), %eax
  4028d2:	85 c0 	testl	%eax, %eax
  4028d4:	74 07 	je	7 <.text+0x67D>
  4028d6:	89 f2 	movl	%esi, %edx
  4028d8:	e8 d3 ff ff ff 	calll	-45 <.text+0x650>
  4028dd:	89 1c 24 	movl	%ebx, (%esp)
  4028e0:	e8 23 13 00 00 	calll	4899 <_free>
  4028e5:	83 c4 14 	addl	$20, %esp
  4028e8:	5b 	popl	%ebx
  4028e9:	5e 	popl	%esi
  4028ea:	c3 	retl
  4028eb:	90 	nop
  4028ec:	8d 74 26 00 	leal	(%esi), %esi
  4028f0:	89 f2 	movl	%esi, %edx
  4028f2:	e8 59 ff ff ff 	calll	-167 <.text+0x5F0>
  4028f7:	eb d6 	jmp	-42 <.text+0x66F>
  4028f9:	8d b4 26 00 00 00 00 	leal	(%esi), %esi
  402900:	55 	pushl	%ebp
  402901:	89 e5 	movl	%esp, %ebp
  402903:	57 	pushl	%edi
  402904:	56 	pushl	%esi
  402905:	53 	pushl	%ebx
  402906:	89 d7 	movl	%edx, %edi
  402908:	83 ec 7c 	subl	$124, %esp
  40290b:	81 e7 00 04 00 00 	andl	$1024, %edi
  402911:	89 45 c8 	movl	%eax, -56(%ebp)
  402914:	89 55 d0 	movl	%edx, -48(%ebp)
  402917:	89 4d ac 	movl	%ecx, -84(%ebp)
  40291a:	89 7d cc 	movl	%edi, -52(%ebp)
  40291d:	0f 85 a0 03 00 00 	jne	928 <.text+0xA63>
  402923:	31 c0 	xorl	%eax, %eax
  402925:	8b 4d cc 	movl	-52(%ebp), %ecx
  402928:	85 c9 	testl	%ecx, %ecx
  40292a:	74 08 	je	8 <.text+0x6D4>
  40292c:	8d 65 f4 	leal	-12(%ebp), %esp
  40292f:	5b 	popl	%ebx
  402930:	5e 	popl	%esi
  402931:	5f 	popl	%edi
  402932:	5d 	popl	%ebp
  402933:	c3 	retl
  402934:	8b 7d c8 	movl	-56(%ebp), %edi
  402937:	89 65 9c 	movl	%esp, -100(%ebp)
  40293a:	89 3c 24 	movl	%edi, (%esp)
  40293d:	e8 7e 12 00 00 	calll	4734 <_strlen>
  402942:	8d 50 01 	leal	1(%eax), %edx
  402945:	83 c0 10 	addl	$16, %eax
  402948:	c1 e8 04 	shrl	$4, %eax
  40294b:	c1 e0 04 	shll	$4, %eax
  40294e:	e8 6d f8 ff ff 	calll	-1939 <___chkstk_ms>
  402953:	29 c4 	subl	%eax, %esp
  402955:	8d 44 24 0c 	leal	12(%esp), %eax
  402959:	89 54 24 08 	movl	%edx, 8(%esp)
  40295d:	89 7c 24 04 	movl	%edi, 4(%esp)
  402961:	89 04 24 	movl	%eax, (%esp)
  402964:	e8 7f 12 00 00 	calll	4735 <_memcpy>
  402969:	89 04 24 	movl	%eax, (%esp)
  40296c:	e8 4f 09 00 00 	calll	2383 <___mingw_dirname>
  402971:	89 45 a4 	movl	%eax, -92(%ebp)
  402974:	89 c3 	movl	%eax, %ebx
  402976:	8d 45 d8 	leal	-40(%ebp), %eax
  402979:	c7 45 e4 00 00 00 00 	movl	$0, -28(%ebp)
  402980:	e8 6b f9 ff ff 	calll	-1685 <.text+0x90>
  402985:	85 c0 	testl	%eax, %eax
  402987:	0f 85 8b 02 00 00 	jne	651 <.text+0x9B8>
  40298d:	8b 7d d0 	movl	-48(%ebp), %edi
  402990:	89 d8 	movl	%ebx, %eax
  402992:	89 fa 	movl	%edi, %edx
  402994:	e8 c7 f8 ff ff 	calll	-1849 <.text>
  402999:	85 c0 	testl	%eax, %eax
  40299b:	0f 84 14 05 00 00 	je	1300 <.text+0xC55>
  4029a1:	8d 45 d8 	leal	-40(%ebp), %eax
  4029a4:	89 fa 	movl	%edi, %edx
  4029a6:	80 ce 80 	orb	$-128, %dh
  4029a9:	89 04 24 	movl	%eax, (%esp)
  4029ac:	8b 4d ac 	movl	-84(%ebp), %ecx
  4029af:	89 d8 	movl	%ebx, %eax
  4029b1:	e8 4a ff ff ff 	calll	-182 <.text+0x6A0>
  4029b6:	85 c0 	testl	%eax, %eax
  4029b8:	0f 85 5a 02 00 00 	jne	602 <.text+0x9B8>
  4029be:	8b 45 c8 	movl	-56(%ebp), %eax
  4029c1:	0f b6 40 01 	movzbl	1(%eax), %eax
  4029c5:	3c 2f 	cmpb	$47, %al
  4029c7:	0f 84 56 02 00 00 	je	598 <.text+0x9C3>
  4029cd:	3c 5c 	cmpb	$92, %al
  4029cf:	0f 84 4e 02 00 00 	je	590 <.text+0x9C3>
  4029d5:	8b 75 a4 	movl	-92(%ebp), %esi
  4029d8:	bf 14 51 40 00 	movl	$4215060, %edi
  4029dd:	b9 02 00 00 00 	movl	$2, %ecx
  4029e2:	f3 	rep
  4029e3:	a6 	cmpsb	%es:(%edi), (%esi)
  4029e4:	0f 85 39 02 00 00 	jne	569 <.text+0x9C3>
  4029ea:	f6 45 d0 10 	testb	$16, -48(%ebp)
  4029ee:	0f 85 94 06 00 00 	jne	1684 <.text+0xE28>
  4029f4:	8b 45 c8 	movl	-56(%ebp), %eax
  4029f7:	c6 45 9b 5c 	movb	$92, -101(%ebp)
  4029fb:	c7 45 a4 00 00 00 00 	movl	$0, -92(%ebp)
  402a02:	89 45 c4 	movl	%eax, -60(%ebp)
  402a05:	8b 45 e0 	movl	-32(%ebp), %eax
  402a08:	89 45 cc 	movl	%eax, -52(%ebp)
  402a0b:	8b 00 	movl	(%eax), %eax
  402a0d:	85 c0 	testl	%eax, %eax
  402a0f:	0f 84 5b 06 00 00 	je	1627 <.text+0xE10>
  402a15:	8b 7d d0 	movl	-48(%ebp), %edi
  402a18:	c7 45 c8 02 00 00 00 	movl	$2, -56(%ebp)
  402a1f:	89 fb 	movl	%edi, %ebx
  402a21:	83 e3 04 	andl	$4, %ebx
  402a24:	89 5d 94 	movl	%ebx, -108(%ebp)
  402a27:	89 fb 	movl	%edi, %ebx
  402a29:	81 e3 00 80 00 00 	andl	$32768, %ebx
  402a2f:	89 5d d4 	movl	%ebx, -44(%ebp)
  402a32:	83 7d c8 01 	cmpl	$1, -56(%ebp)
  402a36:	0f 84 14 05 00 00 	je	1300 <.text+0xCF0>
  402a3c:	89 04 24 	movl	%eax, (%esp)
  402a3f:	e8 ec 0d 00 00 	calll	3564 <___mingw_opendir>
  402a44:	85 c0 	testl	%eax, %eax
  402a46:	89 c7 	movl	%eax, %edi
  402a48:	0f 84 d2 04 00 00 	je	1234 <.text+0xCC0>
  402a4e:	8b 45 a4 	movl	-92(%ebp), %eax
  402a51:	85 c0 	testl	%eax, %eax
  402a53:	0f 84 c3 05 00 00 	je	1475 <.text+0xDBC>
  402a59:	8b 45 cc 	movl	-52(%ebp), %eax
  402a5c:	8b 00 	movl	(%eax), %eax
  402a5e:	89 04 24 	movl	%eax, (%esp)
  402a61:	e8 5a 11 00 00 	calll	4442 <_strlen>
  402a66:	89 45 bc 	movl	%eax, -68(%ebp)
  402a69:	8b 45 d0 	movl	-48(%ebp), %eax
  402a6c:	c7 45 c0 00 00 00 00 	movl	$0, -64(%ebp)
  402a73:	83 e0 40 	andl	$64, %eax
  402a76:	89 45 a0 	movl	%eax, -96(%ebp)
  402a79:	8d b4 26 00 00 00 00 	leal	(%esi), %esi
  402a80:	89 3c 24 	movl	%edi, (%esp)
  402a83:	e8 68 0f 00 00 	calll	3944 <___mingw_readdir>
  402a88:	85 c0 	testl	%eax, %eax
  402a8a:	89 c6 	movl	%eax, %esi
  402a8c:	0f 84 f0 04 00 00 	je	1264 <.text+0xD22>
  402a92:	8b 45 d4 	movl	-44(%ebp), %eax
  402a95:	85 c0 	testl	%eax, %eax
  402a97:	74 06 	je	6 <.text+0x83F>
  402a99:	83 7e 08 10 	cmpl	$16, 8(%esi)
  402a9d:	75 e1 	jne	-31 <.text+0x820>
  402a9f:	8d 5e 0c 	leal	12(%esi), %ebx
  402aa2:	8b 4d d0 	movl	-48(%ebp), %ecx
  402aa5:	8b 45 c4 	movl	-60(%ebp), %eax
  402aa8:	89 da 	movl	%ebx, %edx
  402aaa:	e8 71 fb ff ff 	calll	-1167 <.text+0x3C0>
  402aaf:	85 c0 	testl	%eax, %eax
  402ab1:	75 cd 	jne	-51 <.text+0x820>
  402ab3:	0f b7 76 06 	movzwl	6(%esi), %esi
  402ab7:	8b 4d bc 	movl	-68(%ebp), %ecx
  402aba:	89 65 b8 	movl	%esp, -72(%ebp)
  402abd:	8d 44 31 11 	leal	17(%ecx,%esi), %eax
  402ac1:	89 75 b4 	movl	%esi, -76(%ebp)
  402ac4:	c1 e8 04 	shrl	$4, %eax
  402ac7:	c1 e0 04 	shll	$4, %eax
  402aca:	e8 f1 f6 ff ff 	calll	-2319 <___chkstk_ms>
  402acf:	29 c4 	subl	%eax, %esp
  402ad1:	31 c0 	xorl	%eax, %eax
  402ad3:	85 c9 	testl	%ecx, %ecx
  402ad5:	8d 54 24 0c 	leal	12(%esp), %edx
  402ad9:	89 55 b0 	movl	%edx, -80(%ebp)
  402adc:	0f 85 ce 04 00 00 	jne	1230 <.text+0xD50>
  402ae2:	8b 4d b4 	movl	-76(%ebp), %ecx
  402ae5:	01 d0 	addl	%edx, %eax
  402ae7:	89 55 a8 	movl	%edx, -88(%ebp)
  402aea:	89 5c 24 04 	movl	%ebx, 4(%esp)
  402aee:	89 04 24 	movl	%eax, (%esp)
  402af1:	89 e3 	movl	%esp, %ebx
  402af3:	83 c1 01 	addl	$1, %ecx
  402af6:	89 4c 24 08 	movl	%ecx, 8(%esp)
  402afa:	e8 e9 10 00 00 	calll	4329 <_memcpy>
  402aff:	8b 55 a8 	movl	-88(%ebp), %edx
  402b02:	89 14 24 	movl	%edx, (%esp)
  402b05:	e8 b6 10 00 00 	calll	4278 <_strlen>
  402b0a:	83 c0 10 	addl	$16, %eax
  402b0d:	c1 e8 04 	shrl	$4, %eax
  402b10:	c1 e0 04 	shll	$4, %eax
  402b13:	e8 a8 f6 ff ff 	calll	-2392 <___chkstk_ms>
  402b18:	8b 75 b0 	movl	-80(%ebp), %esi
  402b1b:	29 c4 	subl	%eax, %esp
  402b1d:	8d 4c 24 0c 	leal	12(%esp), %ecx
  402b21:	89 ca 	movl	%ecx, %edx
  402b23:	eb 0d 	jmp	13 <.text+0x8D2>
  402b25:	83 c2 01 	addl	$1, %edx
  402b28:	83 c6 01 	addl	$1, %esi
  402b2b:	84 c0 	testb	%al, %al
  402b2d:	88 42 ff 	movb	%al, -1(%edx)
  402b30:	74 1b 	je	27 <.text+0x8ED>
  402b32:	0f b6 06 	movzbl	(%esi), %eax
  402b35:	3c 7f 	cmpb	$127, %al
  402b37:	75 ec 	jne	-20 <.text+0x8C5>
  402b39:	0f b6 46 01 	movzbl	1(%esi), %eax
  402b3d:	83 c6 01 	addl	$1, %esi
  402b40:	83 c2 01 	addl	$1, %edx
  402b43:	83 c6 01 	addl	$1, %esi
  402b46:	84 c0 	testb	%al, %al
  402b48:	88 42 ff 	movb	%al, -1(%edx)
  402b4b:	75 e5 	jne	-27 <.text+0x8D2>
  402b4d:	89 0c 24 	movl	%ecx, (%esp)
  402b50:	e8 a3 11 00 00 	calll	4515 <_strdup>
  402b55:	85 c0 	testl	%eax, %eax
  402b57:	89 c6 	movl	%eax, %esi
  402b59:	89 dc 	movl	%ebx, %esp
  402b5b:	0f 84 8f 04 00 00 	je	1167 <.text+0xD90>
  402b61:	8b 5d c8 	movl	-56(%ebp), %ebx
  402b64:	83 fb 02 	cmpl	$2, %ebx
  402b67:	0f 94 c0 	sete	%al
  402b6a:	0f b6 c0 	movzbl	%al, %eax
  402b6d:	83 e8 01 	subl	$1, %eax
  402b70:	21 c3 	andl	%eax, %ebx
  402b72:	89 5d c8 	movl	%ebx, -56(%ebp)
  402b75:	8b 5d a0 	movl	-96(%ebp), %ebx
  402b78:	85 db 	testl	%ebx, %ebx
  402b7a:	0f 85 20 04 00 00 	jne	1056 <.text+0xD40>
  402b80:	8b 45 c0 	movl	-64(%ebp), %eax
  402b83:	85 c0 	testl	%eax, %eax
  402b85:	0f 84 b6 04 00 00 	je	1206 <.text+0xDE1>
  402b8b:	8b 5d d0 	movl	-48(%ebp), %ebx
  402b8e:	89 7d b4 	movl	%edi, -76(%ebp)
  402b91:	81 e3 00 40 00 00 	andl	$16384, %ebx
  402b97:	89 d9 	movl	%ebx, %ecx
  402b99:	89 c3 	movl	%eax, %ebx
  402b9b:	89 cf 	movl	%ecx, %edi
  402b9d:	eb 15 	jmp	21 <.text+0x954>
  402b9f:	90 	nop
  402ba0:	e8 23 10 00 00 	calll	4131 <_strcoll>
  402ba5:	85 c0 	testl	%eax, %eax
  402ba7:	8b 13 	movl	(%ebx), %edx
  402ba9:	8b 4b 04 	movl	4(%ebx), %ecx
  402bac:	7e 22 	jle	34 <.text+0x970>
  402bae:	85 c9 	testl	%ecx, %ecx
  402bb0:	74 24 	je	36 <.text+0x976>
  402bb2:	89 cb 	movl	%ecx, %ebx
  402bb4:	8b 43 08 	movl	8(%ebx), %eax
  402bb7:	85 ff 	testl	%edi, %edi
  402bb9:	89 34 24 	movl	%esi, (%esp)
  402bbc:	89 44 24 04 	movl	%eax, 4(%esp)
  402bc0:	75 de 	jne	-34 <.text+0x940>
  402bc2:	e8 29 11 00 00 	calll	4393 <_stricoll>
  402bc7:	85 c0 	testl	%eax, %eax
  402bc9:	8b 13 	movl	(%ebx), %edx
  402bcb:	8b 4b 04 	movl	4(%ebx), %ecx
  402bce:	7f de 	jg	-34 <.text+0x94E>
  402bd0:	89 d1 	movl	%edx, %ecx
  402bd2:	85 c9 	testl	%ecx, %ecx
  402bd4:	75 dc 	jne	-36 <.text+0x952>
  402bd6:	8b 7d b4 	movl	-76(%ebp), %edi
  402bd9:	89 45 b4 	movl	%eax, -76(%ebp)
  402bdc:	c7 04 24 0c 00 00 00 	movl	$12, (%esp)
  402be3:	e8 10 10 00 00 	calll	4112 <_malloc>
  402be8:	85 c0 	testl	%eax, %eax
  402bea:	8b 55 b4 	movl	-76(%ebp), %edx
  402bed:	0f 84 b4 03 00 00 	je	948 <.text+0xD47>
  402bf3:	85 d2 	testl	%edx, %edx
  402bf5:	89 70 08 	movl	%esi, 8(%eax)
  402bf8:	c7 40 04 00 00 00 00 	movl	$0, 4(%eax)
  402bff:	c7 00 00 00 00 00 	movl	$0, (%eax)
  402c05:	0f 8e 1d 04 00 00 	jle	1053 <.text+0xDC8>
  402c0b:	89 43 04 	movl	%eax, 4(%ebx)
  402c0e:	e9 94 03 00 00 	jmp	916 <.text+0xD47>
  402c13:	b8 01 00 00 00 	movl	$1, %eax
  402c18:	8b 65 9c 	movl	-100(%ebp), %esp
  402c1b:	8d 65 f4 	leal	-12(%ebp), %esp
  402c1e:	5b 	popl	%ebx
  402c1f:	5e 	popl	%esi
  402c20:	5f 	popl	%edi
  402c21:	5d 	popl	%ebp
  402c22:	c3 	retl
  402c23:	8b 45 a4 	movl	-92(%ebp), %eax
  402c26:	89 04 24 	movl	%eax, (%esp)
  402c29:	e8 92 0f 00 00 	calll	3986 <_strlen>
  402c2e:	8b 5d c8 	movl	-56(%ebp), %ebx
  402c31:	01 d8 	addl	%ebx, %eax
  402c33:	39 c3 	cmpl	%eax, %ebx
  402c35:	0f 83 ea 04 00 00 	jae	1258 <.text+0xEC5>
  402c3b:	0f b6 10 	movzbl	(%eax), %edx
  402c3e:	80 fa 2f 	cmpb	$47, %dl
  402c41:	0f 84 d3 04 00 00 	je	1235 <.text+0xEBA>
  402c47:	80 fa 5c 	cmpb	$92, %dl
  402c4a:	0f 84 ca 04 00 00 	je	1226 <.text+0xEBA>
  402c50:	8b 5d c8 	movl	-56(%ebp), %ebx
  402c53:	eb 18 	jmp	24 <.text+0xA0D>
  402c55:	0f b6 50 ff 	movzbl	-1(%eax), %edx
  402c59:	89 c8 	movl	%ecx, %eax
  402c5b:	80 fa 2f 	cmpb	$47, %dl
  402c5e:	0f 84 cb 03 00 00 	je	971 <.text+0xDCF>
  402c64:	80 fa 5c 	cmpb	$92, %dl
  402c67:	0f 84 c2 03 00 00 	je	962 <.text+0xDCF>
  402c6d:	8d 48 ff 	leal	-1(%eax), %ecx
  402c70:	39 cb 	cmpl	%ecx, %ebx
  402c72:	75 e1 	jne	-31 <.text+0x9F5>
  402c74:	0f b6 40 ff 	movzbl	-1(%eax), %eax
  402c78:	89 4d c4 	movl	%ecx, -60(%ebp)
  402c7b:	88 45 9b 	movb	%al, -101(%ebp)
  402c7e:	0f b6 45 9b 	movzbl	-101(%ebp), %eax
  402c82:	3c 2f 	cmpb	$47, %al
  402c84:	74 08 	je	8 <.text+0xA2E>
  402c86:	3c 5c 	cmpb	$92, %al
  402c88:	0f 85 f1 03 00 00 	jne	1009 <.text+0xE1F>
  402c8e:	0f b6 75 9b 	movzbl	-101(%ebp), %esi
  402c92:	8b 55 c4 	movl	-60(%ebp), %edx
  402c95:	eb 0b 	jmp	11 <.text+0xA42>
  402c97:	89 f6 	movl	%esi, %esi
  402c99:	8d bc 27 00 00 00 00 	leal	(%edi), %edi
  402ca0:	89 c6 	movl	%eax, %esi
  402ca2:	83 c2 01 	addl	$1, %edx
  402ca5:	0f b6 02 	movzbl	(%edx), %eax
  402ca8:	3c 2f 	cmpb	$47, %al
  402caa:	0f 94 c3 	sete	%bl
  402cad:	3c 5c 	cmpb	$92, %al
  402caf:	0f 94 c1 	sete	%cl
  402cb2:	08 cb 	orb	%cl, %bl
  402cb4:	75 ea 	jne	-22 <.text+0xA40>
  402cb6:	89 f0 	movl	%esi, %eax
  402cb8:	89 55 c4 	movl	%edx, -60(%ebp)
  402cbb:	88 45 9b 	movb	%al, -101(%ebp)
  402cbe:	e9 42 fd ff ff 	jmp	-702 <.text+0x7A5>
  402cc3:	8b 75 c8 	movl	-56(%ebp), %esi
  402cc6:	89 65 c0 	movl	%esp, -64(%ebp)
  402cc9:	89 34 24 	movl	%esi, (%esp)
  402ccc:	e8 ef 0e 00 00 	calll	3823 <_strlen>
  402cd1:	83 c0 10 	addl	$16, %eax
  402cd4:	c1 e8 04 	shrl	$4, %eax
  402cd7:	c1 e0 04 	shll	$4, %eax
  402cda:	e8 e1 f4 ff ff 	calll	-2847 <___chkstk_ms>
  402cdf:	29 c4 	subl	%eax, %esp
  402ce1:	8d 44 24 0c 	leal	12(%esp), %eax
  402ce5:	89 c7 	movl	%eax, %edi
  402ce7:	89 45 bc 	movl	%eax, -68(%ebp)
  402cea:	0f b6 06 	movzbl	(%esi), %eax
  402ced:	3c 7f 	cmpb	$127, %al
  402cef:	74 20 	je	32 <.text+0xAB1>
  402cf1:	3c 7b 	cmpb	$123, %al
  402cf3:	74 3b 	je	59 <.text+0xAD0>
  402cf5:	84 c0 	testb	%al, %al
  402cf7:	8d 57 01 	leal	1(%edi), %edx
  402cfa:	8d 4e 01 	leal	1(%esi), %ecx
  402cfd:	88 07 	movb	%al, (%edi)
  402cff:	0f 84 47 04 00 00 	je	1095 <.text+0xEEC>
  402d05:	0f b6 46 01 	movzbl	1(%esi), %eax
  402d09:	89 d7 	movl	%edx, %edi
  402d0b:	89 ce 	movl	%ecx, %esi
  402d0d:	3c 7f 	cmpb	$127, %al
  402d0f:	75 e0 	jne	-32 <.text+0xA91>
  402d11:	0f b6 46 01 	movzbl	1(%esi), %eax
  402d15:	c6 07 7f 	movb	$127, (%edi)
  402d18:	84 c0 	testb	%al, %al
  402d1a:	0f 85 10 01 00 00 	jne	272 <.text+0xBD0>
  402d20:	83 c7 01 	addl	$1, %edi
  402d23:	83 c6 01 	addl	$1, %esi
  402d26:	eb cd 	jmp	-51 <.text+0xA95>
  402d28:	90 	nop
  402d29:	8d b4 26 00 00 00 00 	leal	(%esi), %esi
  402d30:	89 7d c4 	movl	%edi, -60(%ebp)
  402d33:	8b 55 c4 	movl	-60(%ebp), %edx
  402d36:	b9 01 00 00 00 	movl	$1, %ecx
  402d3b:	0f b6 46 01 	movzbl	1(%esi), %eax
  402d3f:	3c 7f 	cmpb	$127, %al
  402d41:	74 2a 	je	42 <.text+0xB0D>
  402d43:	83 c6 01 	addl	$1, %esi
  402d46:	3c 7d 	cmpb	$125, %al
  402d48:	74 11 	je	17 <.text+0xAFB>
  402d4a:	3c 2c 	cmpb	$44, %al
  402d4c:	0f 85 93 00 00 00 	jne	147 <.text+0xB85>
  402d52:	83 f9 01 	cmpl	$1, %ecx
  402d55:	0f 85 8a 00 00 00 	jne	138 <.text+0xB85>
  402d5b:	83 e9 01 	subl	$1, %ecx
  402d5e:	74 30 	je	48 <.text+0xB30>
  402d60:	88 02 	movb	%al, (%edx)
  402d62:	0f b6 46 01 	movzbl	1(%esi), %eax
  402d66:	83 c2 01 	addl	$1, %edx
  402d69:	3c 7f 	cmpb	$127, %al
  402d6b:	75 d6 	jne	-42 <.text+0xAE3>
  402d6d:	0f b6 46 02 	movzbl	2(%esi), %eax
  402d71:	c6 02 7f 	movb	$127, (%edx)
  402d74:	8d 5a 02 	leal	2(%edx), %ebx
  402d77:	84 c0 	testb	%al, %al
  402d79:	88 42 01 	movb	%al, 1(%edx)
  402d7c:	0f 84 8e 00 00 00 	je	142 <.text+0xBB0>
  402d82:	0f b6 46 03 	movzbl	3(%esi), %eax
  402d86:	89 da 	movl	%ebx, %edx
  402d88:	83 c6 03 	addl	$3, %esi
  402d8b:	eb b9 	jmp	-71 <.text+0xAE6>
  402d8d:	8d 76 00 	leal	(%esi), %esi
  402d90:	3c 2c 	cmpb	$44, %al
  402d92:	89 f3 	movl	%esi, %ebx
  402d94:	0f 85 c6 00 00 00 	jne	198 <.text+0xC00>
  402d9a:	89 f0 	movl	%esi, %eax
  402d9c:	bf 01 00 00 00 	movl	$1, %edi
  402da1:	0f b6 48 01 	movzbl	1(%eax), %ecx
  402da5:	8d 58 01 	leal	1(%eax), %ebx
  402da8:	80 f9 7f 	cmpb	$127, %cl
  402dab:	0f 85 89 02 00 00 	jne	649 <.text+0xDDA>
  402db1:	80 78 02 00 	cmpb	$0, 2(%eax)
  402db5:	74 29 	je	41 <.text+0xB80>
  402db7:	89 d8 	movl	%ebx, %eax
  402db9:	eb 0b 	jmp	11 <.text+0xB66>
  402dbb:	90 	nop
  402dbc:	8d 74 26 00 	leal	(%esi), %esi
  402dc0:	80 78 01 00 	cmpb	$0, 1(%eax)
  402dc4:	74 1a 	je	26 <.text+0xB80>
  402dc6:	83 c0 02 	addl	$2, %eax
  402dc9:	0f b6 08 	movzbl	(%eax), %ecx
  402dcc:	80 f9 7f 	cmpb	$127, %cl
  402dcf:	74 ef 	je	-17 <.text+0xB60>
  402dd1:	80 f9 7b 	cmpb	$123, %cl
  402dd4:	74 6b 	je	107 <.text+0xBE1>
  402dd6:	80 f9 7d 	cmpb	$125, %cl
  402dd9:	74 6e 	je	110 <.text+0xBE9>
  402ddb:	84 c9 	testb	%cl, %cl
  402ddd:	75 c2 	jne	-62 <.text+0xB41>
  402ddf:	90 	nop
  402de0:	c6 02 00 	movb	$0, (%edx)
  402de3:	eb 2f 	jmp	47 <.text+0xBB4>
  402de5:	3c 7b 	cmpb	$123, %al
  402de7:	74 38 	je	56 <.text+0xBC1>
  402de9:	84 c0 	testb	%al, %al
  402deb:	0f 95 45 d4 	setne	-44(%ebp)
  402def:	0f b6 5d d4 	movzbl	-44(%ebp), %ebx
  402df3:	89 df 	movl	%ebx, %edi
  402df5:	8d 5a 01 	leal	1(%edx), %ebx
  402df8:	88 02 	movb	%al, (%edx)
  402dfa:	89 fa 	movl	%edi, %edx
  402dfc:	84 d2 	testb	%dl, %dl
  402dfe:	0f 84 2f 03 00 00 	je	815 <.text+0xED3>
  402e04:	89 da 	movl	%ebx, %edx
  402e06:	e9 30 ff ff ff 	jmp	-208 <.text+0xADB>
  402e0b:	90 	nop
  402e0c:	8d 74 26 00 	leal	(%esi), %esi
  402e10:	c6 42 02 00 	movb	$0, 2(%edx)
  402e14:	b8 01 00 00 00 	movl	$1, %eax
  402e19:	8b 65 c0 	movl	-64(%ebp), %esp
  402e1c:	e9 04 fb ff ff 	jmp	-1276 <.text+0x6C5>
  402e21:	83 c1 01 	addl	$1, %ecx
  402e24:	bf 01 00 00 00 	movl	$1, %edi
  402e29:	c6 45 d4 01 	movb	$1, -44(%ebp)
  402e2d:	eb c6 	jmp	-58 <.text+0xB95>
  402e2f:	90 	nop
  402e30:	88 47 01 	movb	%al, 1(%edi)
  402e33:	83 c6 02 	addl	$2, %esi
  402e36:	0f b6 06 	movzbl	(%esi), %eax
  402e39:	83 c7 02 	addl	$2, %edi
  402e3c:	e9 ac fe ff ff 	jmp	-340 <.text+0xA8D>
  402e41:	83 c7 01 	addl	$1, %edi
  402e44:	e9 58 ff ff ff 	jmp	-168 <.text+0xB41>
  402e49:	83 ef 01 	subl	$1, %edi
  402e4c:	0f 85 4f ff ff ff 	jne	-177 <.text+0xB41>
  402e52:	89 f3 	movl	%esi, %ebx
  402e54:	89 c6 	movl	%eax, %esi
  402e56:	8d 76 00 	leal	(%esi), %esi
  402e59:	8d bc 27 00 00 00 00 	leal	(%edi), %edi
  402e60:	8d 4e 01 	leal	1(%esi), %ecx
  402e63:	0f b6 46 01 	movzbl	1(%esi), %eax
  402e67:	eb 0a 	jmp	10 <.text+0xC13>
  402e69:	8d b4 26 00 00 00 00 	leal	(%esi), %esi
  402e70:	0f b6 01 	movzbl	(%ecx), %eax
  402e73:	83 c2 01 	addl	$1, %edx
  402e76:	83 c1 01 	addl	$1, %ecx
  402e79:	84 c0 	testb	%al, %al
  402e7b:	88 42 ff 	movb	%al, -1(%edx)
  402e7e:	75 f0 	jne	-16 <.text+0xC10>
  402e80:	8b 45 08 	movl	8(%ebp), %eax
  402e83:	89 de 	movl	%ebx, %esi
  402e85:	89 04 24 	movl	%eax, (%esp)
  402e88:	8b 7d d0 	movl	-48(%ebp), %edi
  402e8b:	8b 4d ac 	movl	-84(%ebp), %ecx
  402e8e:	8b 45 bc 	movl	-68(%ebp), %eax
  402e91:	89 fa 	movl	%edi, %edx
  402e93:	83 cf 01 	orl	$1, %edi
  402e96:	e8 65 fa ff ff 	calll	-1435 <.text+0x6A0>
  402e9b:	83 f8 01 	cmpl	$1, %eax
  402e9e:	89 7d d0 	movl	%edi, -48(%ebp)
  402ea1:	0f 84 72 ff ff ff 	je	-142 <.text+0xBB9>
  402ea7:	80 3b 2c 	cmpb	$44, (%ebx)
  402eaa:	0f 84 83 fe ff ff 	je	-381 <.text+0xAD3>
  402eb0:	e9 64 ff ff ff 	jmp	-156 <.text+0xBB9>
  402eb5:	8b 7d a4 	movl	-92(%ebp), %edi
  402eb8:	89 e3 	movl	%esp, %ebx
  402eba:	89 3c 24 	movl	%edi, (%esp)
  402ebd:	e8 fe 0c 00 00 	calll	3326 <_strlen>
  402ec2:	83 c0 10 	addl	$16, %eax
  402ec5:	c1 e8 04 	shrl	$4, %eax
  402ec8:	c1 e0 04 	shll	$4, %eax
  402ecb:	e8 f0 f2 ff ff 	calll	-3344 <___chkstk_ms>
  402ed0:	29 c4 	subl	%eax, %esp
  402ed2:	89 fa 	movl	%edi, %edx
  402ed4:	8d 74 24 0c 	leal	12(%esp), %esi
  402ed8:	89 f1 	movl	%esi, %ecx
  402eda:	eb 11 	jmp	17 <.text+0xC8D>
  402edc:	8d 74 26 00 	leal	(%esi), %esi
  402ee0:	83 c1 01 	addl	$1, %ecx
  402ee3:	83 c2 01 	addl	$1, %edx
  402ee6:	84 c0 	testb	%al, %al
  402ee8:	88 41 ff 	movb	%al, -1(%ecx)
  402eeb:	74 13 	je	19 <.text+0xCA0>
  402eed:	0f b6 02 	movzbl	(%edx), %eax
  402ef0:	3c 7f 	cmpb	$127, %al
  402ef2:	75 ec 	jne	-20 <.text+0xC80>
  402ef4:	0f b6 42 01 	movzbl	1(%edx), %eax
  402ef8:	83 c2 01 	addl	$1, %edx
  402efb:	eb e3 	jmp	-29 <.text+0xC80>
  402efd:	8d 76 00 	leal	(%esi), %esi
  402f00:	89 34 24 	movl	%esi, (%esp)
  402f03:	e8 f0 0d 00 00 	calll	3568 <_strdup>
  402f08:	85 c0 	testl	%eax, %eax
  402f0a:	89 dc 	movl	%ebx, %esp
  402f0c:	0f 84 01 fd ff ff 	je	-767 <.text+0x9B3>
  402f12:	8d 55 d8 	leal	-40(%ebp), %edx
  402f15:	e8 36 f9 ff ff 	calll	-1738 <.text+0x5F0>
  402f1a:	e9 97 fa ff ff 	jmp	-1385 <.text+0x756>
  402f1f:	90 	nop
  402f20:	8b 45 94 	movl	-108(%ebp), %eax
  402f23:	85 c0 	testl	%eax, %eax
  402f25:	75 20 	jne	32 <.text+0xCE7>
  402f27:	8b 7d ac 	movl	-84(%ebp), %edi
  402f2a:	85 ff 	testl	%edi, %edi
  402f2c:	74 22 	je	34 <.text+0xCF0>
  402f2e:	e8 05 0d 00 00 	calll	3333 <__errno>
  402f33:	8b 00 	movl	(%eax), %eax
  402f35:	89 44 24 04 	movl	%eax, 4(%esp)
  402f39:	8b 45 cc 	movl	-52(%ebp), %eax
  402f3c:	8b 00 	movl	(%eax), %eax
  402f3e:	89 04 24 	movl	%eax, (%esp)
  402f41:	ff d7 	calll	*%edi
  402f43:	85 c0 	testl	%eax, %eax
  402f45:	74 09 	je	9 <.text+0xCF0>
  402f47:	c7 45 c8 01 00 00 00 	movl	$1, -56(%ebp)
  402f4e:	66 90 	nop
  402f50:	83 45 cc 04 	addl	$4, -52(%ebp)
  402f54:	8b 7d cc 	movl	-52(%ebp), %edi
  402f57:	8b 47 fc 	movl	-4(%edi), %eax
  402f5a:	89 04 24 	movl	%eax, (%esp)
  402f5d:	e8 a6 0c 00 00 	calll	3238 <_free>
  402f62:	8b 07 	movl	(%edi), %eax
  402f64:	85 c0 	testl	%eax, %eax
  402f66:	0f 85 c6 fa ff ff 	jne	-1338 <.text+0x7D2>
  402f6c:	8b 45 e0 	movl	-32(%ebp), %eax
  402f6f:	89 04 24 	movl	%eax, (%esp)
  402f72:	e8 91 0c 00 00 	calll	3217 <_free>
  402f77:	8b 65 9c 	movl	-100(%ebp), %esp
  402f7a:	8b 45 c8 	movl	-56(%ebp), %eax
  402f7d:	e9 aa f9 ff ff 	jmp	-1622 <.text+0x6CC>
  402f82:	89 3c 24 	movl	%edi, (%esp)
  402f85:	e8 b6 0a 00 00 	calll	2742 <___mingw_closedir>
  402f8a:	8b 55 c0 	movl	-64(%ebp), %edx
  402f8d:	85 d2 	testl	%edx, %edx
  402f8f:	74 bf 	je	-65 <.text+0xCF0>
  402f91:	8b 55 08 	movl	8(%ebp), %edx
  402f94:	8b 45 c0 	movl	-64(%ebp), %eax
  402f97:	e8 14 f9 ff ff 	calll	-1772 <.text+0x650>
  402f9c:	eb b2 	jmp	-78 <.text+0xCF0>
  402f9e:	66 90 	nop
  402fa0:	8b 4d 08 	movl	8(%ebp), %ecx
  402fa3:	85 c9 	testl	%ecx, %ecx
  402fa5:	75 69 	jne	105 <.text+0xDB0>
  402fa7:	8b 65 b8 	movl	-72(%ebp), %esp
  402faa:	e9 d1 fa ff ff 	jmp	-1327 <.text+0x820>
  402faf:	90 	nop
  402fb0:	8b 45 cc 	movl	-52(%ebp), %eax
  402fb3:	89 ce 	movl	%ecx, %esi
  402fb5:	8b 00 	movl	(%eax), %eax
  402fb7:	89 14 24 	movl	%edx, (%esp)
  402fba:	89 4c 24 08 	movl	%ecx, 8(%esp)
  402fbe:	89 44 24 04 	movl	%eax, 4(%esp)
  402fc2:	89 55 a8 	movl	%edx, -88(%ebp)
  402fc5:	e8 1e 0c 00 00 	calll	3102 <_memcpy>
  402fca:	0f b6 44 34 0b 	movzbl	11(%esp,%esi), %eax
  402fcf:	8b 55 a8 	movl	-88(%ebp), %edx
  402fd2:	3c 2f 	cmpb	$47, %al
  402fd4:	74 2a 	je	42 <.text+0xDA0>
  402fd6:	3c 5c 	cmpb	$92, %al
  402fd8:	74 26 	je	38 <.text+0xDA0>
  402fda:	0f b6 4d 9b 	movzbl	-101(%ebp), %ecx
  402fde:	8d 46 01 	leal	1(%esi), %eax
  402fe1:	88 0c 32 	movb	%cl, (%edx,%esi)
  402fe4:	e9 f9 fa ff ff 	jmp	-1287 <.text+0x882>
  402fe9:	8d b4 26 00 00 00 00 	leal	(%esi), %esi
  402ff0:	c7 45 c8 03 00 00 00 	movl	$3, -56(%ebp)
  402ff7:	eb ae 	jmp	-82 <.text+0xD47>
  402ff9:	8d b4 26 00 00 00 00 	leal	(%esi), %esi
  403000:	8b 45 bc 	movl	-68(%ebp), %eax
  403003:	e9 da fa ff ff 	jmp	-1318 <.text+0x882>
  403008:	90 	nop
  403009:	8d b4 26 00 00 00 00 	leal	(%esi), %esi
  403010:	8b 55 08 	movl	8(%ebp), %edx
  403013:	89 f0 	movl	%esi, %eax
  403015:	e8 36 f8 ff ff 	calll	-1994 <.text+0x5F0>
  40301a:	eb 8b 	jmp	-117 <.text+0xD47>
  40301c:	c7 45 bc 00 00 00 00 	movl	$0, -68(%ebp)
  403023:	e9 41 fa ff ff 	jmp	-1471 <.text+0x809>
  403028:	89 03 	movl	%eax, (%ebx)
  40302a:	e9 78 ff ff ff 	jmp	-136 <.text+0xD47>
  40302f:	89 4d c4 	movl	%ecx, -60(%ebp)
  403032:	88 55 9b 	movb	%dl, -101(%ebp)
  403035:	e9 44 fc ff ff 	jmp	-956 <.text+0xA1E>
  40303a:	89 d8 	movl	%ebx, %eax
  40303c:	e9 90 fd ff ff 	jmp	-624 <.text+0xB71>
  403041:	c7 04 24 0c 00 00 00 	movl	$12, (%esp)
  403048:	e8 ab 0b 00 00 	calll	2987 <_malloc>
  40304d:	85 c0 	testl	%eax, %eax
  40304f:	89 45 c0 	movl	%eax, -64(%ebp)
  403052:	0f 84 4f ff ff ff 	je	-177 <.text+0xD47>
  403058:	8b 45 c0 	movl	-64(%ebp), %eax
  40305b:	89 70 08 	movl	%esi, 8(%eax)
  40305e:	c7 40 04 00 00 00 00 	movl	$0, 4(%eax)
  403065:	c7 00 00 00 00 00 	movl	$0, (%eax)
  40306b:	e9 37 ff ff ff 	jmp	-201 <.text+0xD47>
  403070:	8b 45 cc 	movl	-52(%ebp), %eax
  403073:	c7 45 c8 02 00 00 00 	movl	$2, -56(%ebp)
  40307a:	e9 f0 fe ff ff 	jmp	-272 <.text+0xD0F>
  40307f:	c6 45 9b 5c 	movb	$92, -101(%ebp)
  403083:	e9 7d f9 ff ff 	jmp	-1667 <.text+0x7A5>
  403088:	8b 7d c8 	movl	-56(%ebp), %edi
  40308b:	8b 55 d0 	movl	-48(%ebp), %edx
  40308e:	89 f8 	movl	%edi, %eax
  403090:	e8 cb f1 ff ff 	calll	-3637 <.text>
  403095:	85 c0 	testl	%eax, %eax
  403097:	74 13 	je	19 <.text+0xE4C>
  403099:	89 7d c4 	movl	%edi, -60(%ebp)
  40309c:	c6 45 9b 5c 	movb	$92, -101(%ebp)
  4030a0:	c7 45 a4 00 00 00 00 	movl	$0, -92(%ebp)
  4030a7:	e9 59 f9 ff ff 	jmp	-1703 <.text+0x7A5>
  4030ac:	8b 75 c8 	movl	-56(%ebp), %esi
  4030af:	89 e3 	movl	%esp, %ebx
  4030b1:	89 34 24 	movl	%esi, (%esp)
  4030b4:	e8 07 0b 00 00 	calll	2823 <_strlen>
  4030b9:	83 c0 10 	addl	$16, %eax
  4030bc:	c1 e8 04 	shrl	$4, %eax
  4030bf:	c1 e0 04 	shll	$4, %eax
  4030c2:	e8 f9 f0 ff ff 	calll	-3847 <___chkstk_ms>
  4030c7:	29 c4 	subl	%eax, %esp
  4030c9:	8d 4c 24 0c 	leal	12(%esp), %ecx
  4030cd:	89 ca 	movl	%ecx, %edx
  4030cf:	eb 0d 	jmp	13 <.text+0xE7E>
  4030d1:	83 c2 01 	addl	$1, %edx
  4030d4:	83 c6 01 	addl	$1, %esi
  4030d7:	84 c0 	testb	%al, %al
  4030d9:	88 42 ff 	movb	%al, -1(%edx)
  4030dc:	74 10 	je	16 <.text+0xE8E>
  4030de:	0f b6 06 	movzbl	(%esi), %eax
  4030e1:	3c 7f 	cmpb	$127, %al
  4030e3:	75 ec 	jne	-20 <.text+0xE71>
  4030e5:	0f b6 46 01 	movzbl	1(%esi), %eax
  4030e9:	83 c6 01 	addl	$1, %esi
  4030ec:	eb e3 	jmp	-29 <.text+0xE71>
  4030ee:	89 0c 24 	movl	%ecx, (%esp)
  4030f1:	e8 02 0c 00 00 	calll	3074 <_strdup>
  4030f6:	85 c0 	testl	%eax, %eax
  4030f8:	89 dc 	movl	%ebx, %esp
  4030fa:	74 0f 	je	15 <.text+0xEAB>
  4030fc:	8b 55 08 	movl	8(%ebp), %edx
  4030ff:	85 d2 	testl	%edx, %edx
  403101:	74 08 	je	8 <.text+0xEAB>
  403103:	8b 55 08 	movl	8(%ebp), %edx
  403106:	e8 45 f7 ff ff 	calll	-2235 <.text+0x5F0>
  40310b:	8b 45 e0 	movl	-32(%ebp), %eax
  40310e:	c7 45 c8 00 00 00 00 	movl	$0, -56(%ebp)
  403115:	e9 55 fe ff ff 	jmp	-427 <.text+0xD0F>
  40311a:	88 55 9b 	movb	%dl, -101(%ebp)
  40311d:	89 45 c4 	movl	%eax, -60(%ebp)
  403120:	e9 59 fb ff ff 	jmp	-1191 <.text+0xA1E>
  403125:	0f b6 18 	movzbl	(%eax), %ebx
  403128:	89 45 c4 	movl	%eax, -60(%ebp)
  40312b:	88 5d 9b 	movb	%bl, -101(%ebp)
  40312e:	e9 4b fb ff ff 	jmp	-1205 <.text+0xA1E>
  403133:	80 7d d4 00 	cmpb	$0, -44(%ebp)
  403137:	0f 84 d7 fc ff ff 	je	-809 <.text+0xBB4>
  40313d:	3c 2c 	cmpb	$44, %al
  40313f:	89 da 	movl	%ebx, %edx
  403141:	0f 85 99 fc ff ff 	jne	-871 <.text+0xB80>
  403147:	e9 4e fc ff ff 	jmp	-946 <.text+0xB3A>
  40314c:	3c 7b 	cmpb	$123, %al
  40314e:	74 0e 	je	14 <.text+0xEFE>
  403150:	c7 45 cc 00 00 00 00 	movl	$0, -52(%ebp)
  403157:	31 c0 	xorl	%eax, %eax
  403159:	e9 bb fc ff ff 	jmp	-837 <.text+0xBB9>
  40315e:	89 ce 	movl	%ecx, %esi
  403160:	89 55 c4 	movl	%edx, -60(%ebp)
  403163:	e9 cb fb ff ff 	jmp	-1077 <.text+0xAD3>
  403168:	90 	nop
  403169:	8d b4 26 00 00 00 00 	leal	(%esi), %esi

___mingw_glob:
  403170:	55 	pushl	%ebp
  403171:	89 e5 	movl	%esp, %ebp
  403173:	57 	pushl	%edi
  403174:	56 	pushl	%esi
  403175:	53 	pushl	%ebx
  403176:	83 ec 2c 	subl	$44, %esp
  403179:	8b 75 14 	movl	20(%ebp), %esi
  40317c:	8b 5d 08 	movl	8(%ebp), %ebx
  40317f:	8b 7d 0c 	movl	12(%ebp), %edi
  403182:	85 f6 	testl	%esi, %esi
  403184:	74 08 	je	8 <___mingw_glob+0x1E>
  403186:	f7 c7 02 00 00 00 	testl	$2, %edi
  40318c:	74 35 	je	53 <___mingw_glob+0x53>
  40318e:	81 3e 16 51 40 00 	cmpl	$4215062, (%esi)
  403194:	74 0d 	je	13 <___mingw_glob+0x33>
  403196:	89 f0 	movl	%esi, %eax
  403198:	e8 53 f1 ff ff 	calll	-3757 <.text+0x90>
  40319d:	c7 06 16 51 40 00 	movl	$4215062, (%esi)
  4031a3:	89 34 24 	movl	%esi, (%esp)
  4031a6:	8b 4d 10 	movl	16(%ebp), %ecx
  4031a9:	89 fa 	movl	%edi, %edx
  4031ab:	89 d8 	movl	%ebx, %eax
  4031ad:	e8 4e f7 ff ff 	calll	-2226 <.text+0x6A0>
  4031b2:	83 f8 02 	cmpl	$2, %eax
  4031b5:	89 c1 	movl	%eax, %ecx
  4031b7:	74 17 	je	23 <___mingw_glob+0x60>
  4031b9:	8d 65 f4 	leal	-12(%ebp), %esp
  4031bc:	89 c8 	movl	%ecx, %eax
  4031be:	5b 	popl	%ebx
  4031bf:	5e 	popl	%esi
  4031c0:	5f 	popl	%edi
  4031c1:	5d 	popl	%ebp
  4031c2:	c3 	retl
  4031c3:	c7 46 0c 00 00 00 00 	movl	$0, 12(%esi)
  4031ca:	eb c2 	jmp	-62 <___mingw_glob+0x1E>
  4031cc:	8d 74 26 00 	leal	(%esi), %esi
  4031d0:	83 e7 10 	andl	$16, %edi
  4031d3:	74 e4 	je	-28 <___mingw_glob+0x49>
  4031d5:	89 45 e0 	movl	%eax, -32(%ebp)
  4031d8:	89 65 e4 	movl	%esp, -28(%ebp)
  4031db:	89 1c 24 	movl	%ebx, (%esp)
  4031de:	e8 dd 09 00 00 	calll	2525 <_strlen>
  4031e3:	83 c0 10 	addl	$16, %eax
  4031e6:	c1 e8 04 	shrl	$4, %eax
  4031e9:	c1 e0 04 	shll	$4, %eax
  4031ec:	e8 cf ef ff ff 	calll	-4145 <___chkstk_ms>
  4031f1:	8b 4d e0 	movl	-32(%ebp), %ecx
  4031f4:	29 c4 	subl	%eax, %esp
  4031f6:	8d 7c 24 04 	leal	4(%esp), %edi
  4031fa:	89 fa 	movl	%edi, %edx
  4031fc:	eb 0f 	jmp	15 <___mingw_glob+0x9D>
  4031fe:	66 90 	nop
  403200:	83 c2 01 	addl	$1, %edx
  403203:	83 c3 01 	addl	$1, %ebx
  403206:	84 c0 	testb	%al, %al
  403208:	88 42 ff 	movb	%al, -1(%edx)
  40320b:	74 1b 	je	27 <___mingw_glob+0xB8>
  40320d:	0f b6 03 	movzbl	(%ebx), %eax
  403210:	3c 7f 	cmpb	$127, %al
  403212:	75 ec 	jne	-20 <___mingw_glob+0x90>
  403214:	0f b6 43 01 	movzbl	1(%ebx), %eax
  403218:	83 c3 01 	addl	$1, %ebx
  40321b:	83 c2 01 	addl	$1, %edx
  40321e:	83 c3 01 	addl	$1, %ebx
  403221:	84 c0 	testb	%al, %al
  403223:	88 42 ff 	movb	%al, -1(%edx)
  403226:	75 e5 	jne	-27 <___mingw_glob+0x9D>
  403228:	89 4d e0 	movl	%ecx, -32(%ebp)
  40322b:	89 3c 24 	movl	%edi, (%esp)
  40322e:	e8 c5 0a 00 00 	calll	2757 <_strdup>
  403233:	85 c0 	testl	%eax, %eax
  403235:	8b 65 e4 	movl	-28(%ebp), %esp
  403238:	8b 4d e0 	movl	-32(%ebp), %ecx
  40323b:	0f 84 78 ff ff ff 	je	-136 <___mingw_glob+0x49>
  403241:	89 f2 	movl	%esi, %edx
  403243:	89 4d e4 	movl	%ecx, -28(%ebp)
  403246:	e8 05 f6 ff ff 	calll	-2555 <.text+0x5F0>
  40324b:	8b 4d e4 	movl	-28(%ebp), %ecx
  40324e:	e9 66 ff ff ff 	jmp	-154 <___mingw_glob+0x49>
  403253:	8d b6 00 00 00 00 	leal	(%esi), %esi
  403259:	8d bc 27 00 00 00 00 	leal	(%edi), %edi

___mingw_globfree:
  403260:	57 	pushl	%edi
  403261:	56 	pushl	%esi
  403262:	53 	pushl	%ebx
  403263:	83 ec 10 	subl	$16, %esp
  403266:	8b 74 24 20 	movl	32(%esp), %esi
  40326a:	81 3e 16 51 40 00 	cmpl	$4215062, (%esi)
  403270:	74 0e 	je	14 <___mingw_globfree+0x20>
  403272:	83 c4 10 	addl	$16, %esp
  403275:	5b 	popl	%ebx
  403276:	5e 	popl	%esi
  403277:	5f 	popl	%edi
  403278:	c3 	retl
  403279:	8d b4 26 00 00 00 00 	leal	(%esi), %esi
  403280:	8b 46 04 	movl	4(%esi), %eax
  403283:	8b 56 0c 	movl	12(%esi), %edx
  403286:	85 c0 	testl	%eax, %eax
  403288:	8d 78 ff 	leal	-1(%eax), %edi
  40328b:	8d 1c 95 00 00 00 00 	leal	(,%edx,4), %ebx
  403292:	7e 19 	jle	25 <___mingw_globfree+0x4D>
  403294:	8b 46 08 	movl	8(%esi), %eax
  403297:	83 ef 01 	subl	$1, %edi
  40329a:	8b 04 18 	movl	(%eax,%ebx), %eax
  40329d:	83 c3 04 	addl	$4, %ebx
  4032a0:	89 04 24 	movl	%eax, (%esp)
  4032a3:	e8 60 09 00 00 	calll	2400 <_free>
  4032a8:	83 ff ff 	cmpl	$-1, %edi
  4032ab:	75 e7 	jne	-25 <___mingw_globfree+0x34>
  4032ad:	8b 46 08 	movl	8(%esi), %eax
  4032b0:	89 44 24 20 	movl	%eax, 32(%esp)
  4032b4:	83 c4 10 	addl	$16, %esp
  4032b7:	5b 	popl	%ebx
  4032b8:	5e 	popl	%esi
  4032b9:	5f 	popl	%edi
  4032ba:	e9 49 09 00 00 	jmp	2377 <_free>
  4032bf:	90 	nop

___mingw_dirname:
  4032c0:	55 	pushl	%ebp
  4032c1:	89 e5 	movl	%esp, %ebp
  4032c3:	57 	pushl	%edi
  4032c4:	56 	pushl	%esi
  4032c5:	53 	pushl	%ebx
  4032c6:	83 ec 2c 	subl	$44, %esp
  4032c9:	c7 44 24 04 00 00 00 00 	movl	$0, 4(%esp)
  4032d1:	c7 04 24 02 00 00 00 	movl	$2, (%esp)
  4032d8:	e8 fb 08 00 00 	calll	2299 <_setlocale>
  4032dd:	85 c0 	testl	%eax, %eax
  4032df:	89 c3 	movl	%eax, %ebx
  4032e1:	74 0a 	je	10 <___mingw_dirname+0x2D>
  4032e3:	89 04 24 	movl	%eax, (%esp)
  4032e6:	e8 0d 0a 00 00 	calll	2573 <_strdup>
  4032eb:	89 c3 	movl	%eax, %ebx
  4032ed:	c7 44 24 04 28 51 40 00 	movl	$4215080, 4(%esp)
  4032f5:	c7 04 24 02 00 00 00 	movl	$2, (%esp)
  4032fc:	e8 d7 08 00 00 	calll	2263 <_setlocale>
  403301:	8b 75 08 	movl	8(%ebp), %esi
  403304:	85 f6 	testl	%esi, %esi
  403306:	74 08 	je	8 <___mingw_dirname+0x50>
  403308:	8b 45 08 	movl	8(%ebp), %eax
  40330b:	80 38 00 	cmpb	$0, (%eax)
  40330e:	75 70 	jne	112 <___mingw_dirname+0xC0>
  403310:	c7 44 24 08 00 00 00 00 	movl	$0, 8(%esp)
  403318:	c7 44 24 04 2a 51 40 00 	movl	$4215082, 4(%esp)
  403320:	c7 04 24 00 00 00 00 	movl	$0, (%esp)
  403327:	e8 74 08 00 00 	calll	2164 <_wcstombs>
  40332c:	8d 70 01 	leal	1(%eax), %esi
  40332f:	89 74 24 04 	movl	%esi, 4(%esp)
  403333:	a1 68 70 40 00 	movl	4223080, %eax
  403338:	89 04 24 	movl	%eax, (%esp)
  40333b:	e8 a0 08 00 00 	calll	2208 <_realloc>
  403340:	a3 68 70 40 00 	movl	%eax, 4223080
  403345:	89 74 24 08 	movl	%esi, 8(%esp)
  403349:	c7 44 24 04 2a 51 40 00 	movl	$4215082, 4(%esp)
  403351:	89 04 24 	movl	%eax, (%esp)
  403354:	e8 47 08 00 00 	calll	2119 <_wcstombs>
  403359:	89 5c 24 04 	movl	%ebx, 4(%esp)
  40335d:	c7 04 24 02 00 00 00 	movl	$2, (%esp)
  403364:	e8 6f 08 00 00 	calll	2159 <_setlocale>
  403369:	89 1c 24 	movl	%ebx, (%esp)
  40336c:	e8 97 08 00 00 	calll	2199 <_free>
  403371:	a1 68 70 40 00 	movl	4223080, %eax
  403376:	8d 65 f4 	leal	-12(%ebp), %esp
  403379:	5b 	popl	%ebx
  40337a:	5e 	popl	%esi
  40337b:	5f 	popl	%edi
  40337c:	5d 	popl	%ebp
  40337d:	c3 	retl
  40337e:	66 90 	nop
  403380:	89 65 dc 	movl	%esp, -36(%ebp)
  403383:	c7 44 24 08 00 00 00 00 	movl	$0, 8(%esp)
  40338b:	8b 45 08 	movl	8(%ebp), %eax
  40338e:	c7 04 24 00 00 00 00 	movl	$0, (%esp)
  403395:	89 44 24 04 	movl	%eax, 4(%esp)
  403399:	e8 52 08 00 00 	calll	2130 <_mbstowcs>
  40339e:	89 c2 	movl	%eax, %edx
  4033a0:	8d 44 00 12 	leal	18(%eax,%eax), %eax
  4033a4:	c1 e8 04 	shrl	$4, %eax
  4033a7:	c1 e0 04 	shll	$4, %eax
  4033aa:	e8 11 ee ff ff 	calll	-4591 <___chkstk_ms>
  4033af:	29 c4 	subl	%eax, %esp
  4033b1:	89 54 24 08 	movl	%edx, 8(%esp)
  4033b5:	8b 45 08 	movl	8(%ebp), %eax
  4033b8:	8d 74 24 0c 	leal	12(%esp), %esi
  4033bc:	89 34 24 	movl	%esi, (%esp)
  4033bf:	89 44 24 04 	movl	%eax, 4(%esp)
  4033c3:	e8 28 08 00 00 	calll	2088 <_mbstowcs>
  4033c8:	31 c9 	xorl	%ecx, %ecx
  4033ca:	89 45 d8 	movl	%eax, -40(%ebp)
  4033cd:	83 f8 01 	cmpl	$1, %eax
  4033d0:	66 89 0c 46 	movw	%cx, (%esi,%eax,2)
  4033d4:	0f b7 06 	movzwl	(%esi), %eax
  4033d7:	89 75 e4 	movl	%esi, -28(%ebp)
  4033da:	66 89 45 e2 	movw	%ax, -30(%ebp)
  4033de:	0f 86 b8 00 00 00 	jbe	184 <___mingw_dirname+0x1DC>
  4033e4:	66 83 f8 2f 	cmpw	$47, %ax
  4033e8:	0f 84 ae 01 00 00 	je	430 <___mingw_dirname+0x2DC>
  4033ee:	66 83 f8 5c 	cmpw	$92, %ax
  4033f2:	0f 84 a4 01 00 00 	je	420 <___mingw_dirname+0x2DC>
  4033f8:	66 83 7e 02 3a 	cmpw	$58, 2(%esi)
  4033fd:	0f 84 48 02 00 00 	je	584 <___mingw_dirname+0x38B>
  403403:	66 83 7d e2 00 	cmpw	$0, -30(%ebp)
  403408:	0f 84 97 00 00 00 	je	151 <___mingw_dirname+0x1E5>
  40340e:	8b 4d e4 	movl	-28(%ebp), %ecx
  403411:	0f b7 55 e2 	movzwl	-30(%ebp), %edx
  403415:	89 cf 	movl	%ecx, %edi
  403417:	eb 1b 	jmp	27 <___mingw_dirname+0x174>
  403419:	8d b4 26 00 00 00 00 	leal	(%esi), %esi
  403420:	66 83 fa 5c 	cmpw	$92, %dx
  403424:	89 c8 	movl	%ecx, %eax
  403426:	74 12 	je	18 <___mingw_dirname+0x17A>
  403428:	0f b7 50 02 	movzwl	2(%eax), %edx
  40342c:	8d 48 02 	leal	2(%eax), %ecx
  40342f:	66 85 d2 	testw	%dx, %dx
  403432:	74 41 	je	65 <___mingw_dirname+0x1B5>
  403434:	66 83 fa 2f 	cmpw	$47, %dx
  403438:	75 e6 	jne	-26 <___mingw_dirname+0x160>
  40343a:	0f b7 11 	movzwl	(%ecx), %edx
  40343d:	89 c8 	movl	%ecx, %eax
  40343f:	66 83 fa 5c 	cmpw	$92, %dx
  403443:	74 0b 	je	11 <___mingw_dirname+0x190>
  403445:	66 83 fa 2f 	cmpw	$47, %dx
  403449:	75 17 	jne	23 <___mingw_dirname+0x1A2>
  40344b:	90 	nop
  40344c:	8d 74 26 00 	leal	(%esi), %esi
  403450:	83 c0 02 	addl	$2, %eax
  403453:	0f b7 10 	movzwl	(%eax), %edx
  403456:	66 83 fa 2f 	cmpw	$47, %dx
  40345a:	74 f4 	je	-12 <___mingw_dirname+0x190>
  40345c:	66 83 fa 5c 	cmpw	$92, %dx
  403460:	74 ee 	je	-18 <___mingw_dirname+0x190>
  403462:	66 85 d2 	testw	%dx, %dx
  403465:	74 0e 	je	14 <___mingw_dirname+0x1B5>
  403467:	0f b7 50 02 	movzwl	2(%eax), %edx
  40346b:	89 c7 	movl	%eax, %edi
  40346d:	8d 48 02 	leal	2(%eax), %ecx
  403470:	66 85 d2 	testw	%dx, %dx
  403473:	75 bf 	jne	-65 <___mingw_dirname+0x174>
  403475:	39 7d e4 	cmpl	%edi, -28(%ebp)
  403478:	0f 83 42 01 00 00 	jae	322 <___mingw_dirname+0x300>
  40347e:	8b 4d e4 	movl	-28(%ebp), %ecx
  403481:	8d 47 fe 	leal	-2(%edi), %eax
  403484:	39 c8 	cmpl	%ecx, %eax
  403486:	76 25 	jbe	37 <___mingw_dirname+0x1ED>
  403488:	0f b7 57 fe 	movzwl	-2(%edi), %edx
  40348c:	66 83 fa 2f 	cmpw	$47, %dx
  403490:	74 06 	je	6 <___mingw_dirname+0x1D8>
  403492:	66 83 fa 5c 	cmpw	$92, %dx
  403496:	75 15 	jne	21 <___mingw_dirname+0x1ED>
  403498:	89 c7 	movl	%eax, %edi
  40349a:	eb e5 	jmp	-27 <___mingw_dirname+0x1C1>
  40349c:	66 85 c0 	testw	%ax, %ax
  40349f:	0f 85 69 ff ff ff 	jne	-151 <___mingw_dirname+0x14E>
  4034a5:	8b 65 dc 	movl	-36(%ebp), %esp
  4034a8:	e9 63 fe ff ff 	jmp	-413 <___mingw_dirname+0x50>
  4034ad:	3b 45 e4 	cmpl	-28(%ebp), %eax
  4034b0:	0f 84 a8 01 00 00 	je	424 <___mingw_dirname+0x39E>
  4034b6:	31 d2 	xorl	%edx, %edx
  4034b8:	66 89 50 02 	movw	%dx, 2(%eax)
  4034bc:	0f b7 16 	movzwl	(%esi), %edx
  4034bf:	89 f0 	movl	%esi, %eax
  4034c1:	66 83 fa 5c 	cmpw	$92, %dx
  4034c5:	74 0a 	je	10 <___mingw_dirname+0x211>
  4034c7:	66 83 fa 2f 	cmpw	$47, %dx
  4034cb:	0f 85 60 01 00 00 	jne	352 <___mingw_dirname+0x371>
  4034d1:	83 c0 02 	addl	$2, %eax
  4034d4:	0f b7 08 	movzwl	(%eax), %ecx
  4034d7:	66 83 f9 2f 	cmpw	$47, %cx
  4034db:	74 f4 	je	-12 <___mingw_dirname+0x211>
  4034dd:	66 83 f9 5c 	cmpw	$92, %cx
  4034e1:	74 ee 	je	-18 <___mingw_dirname+0x211>
  4034e3:	89 c1 	movl	%eax, %ecx
  4034e5:	29 f1 	subl	%esi, %ecx
  4034e7:	83 f9 05 	cmpl	$5, %ecx
  4034ea:	0f 8e 41 01 00 00 	jle	321 <___mingw_dirname+0x371>
  4034f0:	89 f0 	movl	%esi, %eax
  4034f2:	89 c1 	movl	%eax, %ecx
  4034f4:	66 85 d2 	testw	%dx, %dx
  4034f7:	74 21 	je	33 <___mingw_dirname+0x25A>
  4034f9:	83 c1 02 	addl	$2, %ecx
  4034fc:	66 83 fa 2f 	cmpw	$47, %dx
  403500:	66 89 51 fe 	movw	%dx, -2(%ecx)
  403504:	74 6c 	je	108 <___mingw_dirname+0x2B2>
  403506:	66 83 38 5c 	cmpw	$92, (%eax)
  40350a:	8d 78 02 	leal	2(%eax), %edi
  40350d:	74 61 	je	97 <___mingw_dirname+0x2B0>
  40350f:	0f b7 50 02 	movzwl	2(%eax), %edx
  403513:	89 f8 	movl	%edi, %eax
  403515:	66 85 d2 	testw	%dx, %dx
  403518:	75 df 	jne	-33 <___mingw_dirname+0x239>
  40351a:	8b 45 d8 	movl	-40(%ebp), %eax
  40351d:	31 ff 	xorl	%edi, %edi
  40351f:	66 89 39 	movw	%di, (%ecx)
  403522:	89 74 24 04 	movl	%esi, 4(%esp)
  403526:	89 44 24 08 	movl	%eax, 8(%esp)
  40352a:	8b 45 08 	movl	8(%ebp), %eax
  40352d:	89 04 24 	movl	%eax, (%esp)
  403530:	e8 6b 06 00 00 	calll	1643 <_wcstombs>
  403535:	83 f8 ff 	cmpl	$-1, %eax
  403538:	74 07 	je	7 <___mingw_dirname+0x281>
  40353a:	8b 7d 08 	movl	8(%ebp), %edi
  40353d:	c6 04 07 00 	movb	$0, (%edi,%eax)
  403541:	89 5c 24 04 	movl	%ebx, 4(%esp)
  403545:	c7 04 24 02 00 00 00 	movl	$2, (%esp)
  40354c:	e8 87 06 00 00 	calll	1671 <_setlocale>
  403551:	89 1c 24 	movl	%ebx, (%esp)
  403554:	e8 af 06 00 00 	calll	1711 <_free>
  403559:	8b 45 08 	movl	8(%ebp), %eax
  40355c:	8b 65 dc 	movl	-36(%ebp), %esp
  40355f:	8d 65 f4 	leal	-12(%ebp), %esp
  403562:	5b 	popl	%ebx
  403563:	5e 	popl	%esi
  403564:	5f 	popl	%edi
  403565:	5d 	popl	%ebp
  403566:	c3 	retl
  403567:	89 f6 	movl	%esi, %esi
  403569:	8d bc 27 00 00 00 00 	leal	(%edi), %edi
  403570:	89 f8 	movl	%edi, %eax
  403572:	0f b7 10 	movzwl	(%eax), %edx
  403575:	66 83 fa 5c 	cmpw	$92, %dx
  403579:	74 0a 	je	10 <___mingw_dirname+0x2C5>
  40357b:	66 83 fa 2f 	cmpw	$47, %dx
  40357f:	0f 85 6f ff ff ff 	jne	-145 <___mingw_dirname+0x234>
  403585:	83 c0 02 	addl	$2, %eax
  403588:	0f b7 10 	movzwl	(%eax), %edx
  40358b:	66 83 fa 2f 	cmpw	$47, %dx
  40358f:	74 f4 	je	-12 <___mingw_dirname+0x2C5>
  403591:	66 83 fa 5c 	cmpw	$92, %dx
  403595:	74 ee 	je	-18 <___mingw_dirname+0x2C5>
  403597:	e9 58 ff ff ff 	jmp	-168 <___mingw_dirname+0x234>
  40359c:	0f b7 45 e2 	movzwl	-30(%ebp), %eax
  4035a0:	66 3b 46 02 	cmpw	2(%esi), %ax
  4035a4:	0f 85 59 fe ff ff 	jne	-423 <___mingw_dirname+0x143>
  4035aa:	66 83 7e 04 00 	cmpw	$0, 4(%esi)
  4035af:	0f 85 4e fe ff ff 	jne	-434 <___mingw_dirname+0x143>
  4035b5:	eb 8a 	jmp	-118 <___mingw_dirname+0x281>
  4035b7:	89 f6 	movl	%esi, %esi
  4035b9:	8d bc 27 00 00 00 00 	leal	(%edi), %edi
  4035c0:	0f b7 45 e2 	movzwl	-30(%ebp), %eax
  4035c4:	66 83 f8 2f 	cmpw	$47, %ax
  4035c8:	74 79 	je	121 <___mingw_dirname+0x383>
  4035ca:	66 83 f8 5c 	cmpw	$92, %ax
  4035ce:	74 73 	je	115 <___mingw_dirname+0x383>
  4035d0:	8b 7d e4 	movl	-28(%ebp), %edi
  4035d3:	b9 2e 00 00 00 	movl	$46, %ecx
  4035d8:	89 f8 	movl	%edi, %eax
  4035da:	66 89 0f 	movw	%cx, (%edi)
  4035dd:	83 c0 02 	addl	$2, %eax
  4035e0:	31 d2 	xorl	%edx, %edx
  4035e2:	66 89 10 	movw	%dx, (%eax)
  4035e5:	c7 44 24 08 00 00 00 00 	movl	$0, 8(%esp)
  4035ed:	89 74 24 04 	movl	%esi, 4(%esp)
  4035f1:	c7 04 24 00 00 00 00 	movl	$0, (%esp)
  4035f8:	e8 a3 05 00 00 	calll	1443 <_wcstombs>
  4035fd:	8d 78 01 	leal	1(%eax), %edi
  403600:	89 7c 24 04 	movl	%edi, 4(%esp)
  403604:	a1 68 70 40 00 	movl	4223080, %eax
  403609:	89 04 24 	movl	%eax, (%esp)
  40360c:	e8 cf 05 00 00 	calll	1487 <_realloc>
  403611:	89 45 08 	movl	%eax, 8(%ebp)
  403614:	a3 68 70 40 00 	movl	%eax, 4223080
  403619:	89 7c 24 08 	movl	%edi, 8(%esp)
  40361d:	89 74 24 04 	movl	%esi, 4(%esp)
  403621:	8b 45 08 	movl	8(%ebp), %eax
  403624:	89 04 24 	movl	%eax, (%esp)
  403627:	e8 74 05 00 00 	calll	1396 <_wcstombs>
  40362c:	e9 10 ff ff ff 	jmp	-240 <___mingw_dirname+0x281>
  403631:	66 39 56 02 	cmpw	%dx, 2(%esi)
  403635:	0f 85 b5 fe ff ff 	jne	-331 <___mingw_dirname+0x230>
  40363b:	0f b7 10 	movzwl	(%eax), %edx
  40363e:	e9 af fe ff ff 	jmp	-337 <___mingw_dirname+0x232>
  403643:	8b 45 e4 	movl	-28(%ebp), %eax
  403646:	83 c0 02 	addl	$2, %eax
  403649:	eb 95 	jmp	-107 <___mingw_dirname+0x320>
  40364b:	8d 46 04 	leal	4(%esi), %eax
  40364e:	89 45 e4 	movl	%eax, -28(%ebp)
  403651:	0f b7 46 04 	movzwl	4(%esi), %eax
  403655:	66 89 45 e2 	movw	%ax, -30(%ebp)
  403659:	e9 a5 fd ff ff 	jmp	-603 <___mingw_dirname+0x143>
  40365e:	0f b7 4d e2 	movzwl	-30(%ebp), %ecx
  403662:	66 83 f9 2f 	cmpw	$47, %cx
  403666:	74 0a 	je	10 <___mingw_dirname+0x3B2>
  403668:	66 83 f9 5c 	cmpw	$92, %cx
  40366c:	0f 85 44 fe ff ff 	jne	-444 <___mingw_dirname+0x1F6>
  403672:	8b 4d e4 	movl	-28(%ebp), %ecx
  403675:	0f b7 55 e2 	movzwl	-30(%ebp), %edx
  403679:	66 39 51 02 	cmpw	%dx, 2(%ecx)
  40367d:	89 c8 	movl	%ecx, %eax
  40367f:	0f 85 31 fe ff ff 	jne	-463 <___mingw_dirname+0x1F6>
  403685:	0f b7 51 04 	movzwl	4(%ecx), %edx
  403689:	66 83 fa 2f 	cmpw	$47, %dx
  40368d:	74 0c 	je	12 <___mingw_dirname+0x3DB>
  40368f:	66 83 fa 5c 	cmpw	$92, %dx
  403693:	89 f8 	movl	%edi, %eax
  403695:	0f 85 1b fe ff ff 	jne	-485 <___mingw_dirname+0x1F6>
  40369b:	8b 45 e4 	movl	-28(%ebp), %eax
  40369e:	e9 13 fe ff ff 	jmp	-493 <___mingw_dirname+0x1F6>
  4036a3:	90 	nop
  4036a4:	90 	nop
  4036a5:	90 	nop
  4036a6:	90 	nop
  4036a7:	90 	nop
  4036a8:	90 	nop
  4036a9:	90 	nop
  4036aa:	90 	nop
  4036ab:	90 	nop
  4036ac:	90 	nop
  4036ad:	90 	nop
  4036ae:	90 	nop
  4036af:	90 	nop

.text:
  4036b0:	56 	pushl	%esi
  4036b1:	53 	pushl	%ebx
  4036b2:	89 d3 	movl	%edx, %ebx
  4036b4:	81 ec 54 01 00 00 	subl	$340, %esp
  4036ba:	8d 54 24 10 	leal	16(%esp), %edx
  4036be:	89 04 24 	movl	%eax, (%esp)
  4036c1:	89 54 24 04 	movl	%edx, 4(%esp)
  4036c5:	e8 fe 05 00 00 	calll	1534 <_FindFirstFileA@8>
  4036ca:	83 ec 08 	subl	$8, %esp
  4036cd:	83 f8 ff 	cmpl	$-1, %eax
  4036d0:	89 c6 	movl	%eax, %esi
  4036d2:	74 5a 	je	90 <.text+0x7E>
  4036d4:	31 c0 	xorl	%eax, %eax
  4036d6:	8d 4b 0c 	leal	12(%ebx), %ecx
  4036d9:	66 89 43 06 	movw	%ax, 6(%ebx)
  4036dd:	31 c0 	xorl	%eax, %eax
  4036df:	eb 12 	jmp	18 <.text+0x43>
  4036e1:	0f b7 43 06 	movzwl	6(%ebx), %eax
  4036e5:	83 c0 01 	addl	$1, %eax
  4036e8:	66 3d 04 01 	cmpw	$260, %ax
  4036ec:	66 89 43 06 	movw	%ax, 6(%ebx)
  4036f0:	83 d1 00 	adcl	$0, %ecx
  4036f3:	0f b7 c0 	movzwl	%ax, %eax
  4036f6:	0f b6 44 04 3c 	movzbl	60(%esp,%eax), %eax
  4036fb:	84 c0 	testb	%al, %al
  4036fd:	88 01 	movb	%al, (%ecx)
  4036ff:	75 e0 	jne	-32 <.text+0x31>
  403701:	8b 44 24 10 	movl	16(%esp), %eax
  403705:	24 58 	andb	$88, %al
  403707:	83 f8 10 	cmpl	$16, %eax
  40370a:	76 14 	jbe	20 <.text+0x70>
  40370c:	c7 43 08 18 00 00 00 	movl	$24, 8(%ebx)
  403713:	81 c4 54 01 00 00 	addl	$340, %esp
  403719:	89 f0 	movl	%esi, %eax
  40371b:	5b 	popl	%ebx
  40371c:	5e 	popl	%esi
  40371d:	c3 	retl
  40371e:	66 90 	nop
  403720:	89 43 08 	movl	%eax, 8(%ebx)
  403723:	81 c4 54 01 00 00 	addl	$340, %esp
  403729:	89 f0 	movl	%esi, %eax
  40372b:	5b 	popl	%ebx
  40372c:	5e 	popl	%esi
  40372d:	c3 	retl
  40372e:	e8 05 05 00 00 	calll	1285 <__errno>
  403733:	89 c3 	movl	%eax, %ebx
  403735:	e8 6e 05 00 00 	calll	1390 <_GetLastError@0>
  40373a:	83 f8 03 	cmpl	$3, %eax
  40373d:	89 03 	movl	%eax, (%ebx)
  40373f:	74 31 	je	49 <.text+0xC2>
  403741:	e8 f2 04 00 00 	calll	1266 <__errno>
  403746:	81 38 0b 01 00 00 	cmpl	$267, (%eax)
  40374c:	74 17 	je	23 <.text+0xB5>
  40374e:	e8 e5 04 00 00 	calll	1253 <__errno>
  403753:	83 38 02 	cmpl	$2, (%eax)
  403756:	74 bb 	je	-69 <.text+0x63>
  403758:	e8 db 04 00 00 	calll	1243 <__errno>
  40375d:	c7 00 16 00 00 00 	movl	$22, (%eax)
  403763:	eb ae 	jmp	-82 <.text+0x63>
  403765:	e8 ce 04 00 00 	calll	1230 <__errno>
  40376a:	c7 00 14 00 00 00 	movl	$20, (%eax)
  403770:	eb a1 	jmp	-95 <.text+0x63>
  403772:	e8 c1 04 00 00 	calll	1217 <__errno>
  403777:	c7 00 02 00 00 00 	movl	$2, (%eax)
  40377d:	eb 94 	jmp	-108 <.text+0x63>
  40377f:	90 	nop
  403780:	56 	pushl	%esi
  403781:	53 	pushl	%ebx
  403782:	89 d6 	movl	%edx, %esi
  403784:	81 ec 54 01 00 00 	subl	$340, %esp
  40378a:	8d 54 24 10 	leal	16(%esp), %edx
  40378e:	89 04 24 	movl	%eax, (%esp)
  403791:	89 54 24 04 	movl	%edx, 4(%esp)
  403795:	e8 26 05 00 00 	calll	1318 <_FindNextFileA@8>
  40379a:	83 ec 08 	subl	$8, %esp
  40379d:	85 c0 	testl	%eax, %eax
  40379f:	74 63 	je	99 <.text+0x154>
  4037a1:	31 d2 	xorl	%edx, %edx
  4037a3:	8d 5e 0c 	leal	12(%esi), %ebx
  4037a6:	31 c9 	xorl	%ecx, %ecx
  4037a8:	66 89 56 06 	movw	%dx, 6(%esi)
  4037ac:	eb 15 	jmp	21 <.text+0x113>
  4037ae:	66 90 	nop
  4037b0:	0f b7 56 06 	movzwl	6(%esi), %edx
  4037b4:	8d 4a 01 	leal	1(%edx), %ecx
  4037b7:	66 81 f9 04 01 	cmpw	$260, %cx
  4037bc:	66 89 4e 06 	movw	%cx, 6(%esi)
  4037c0:	83 d3 00 	adcl	$0, %ebx
  4037c3:	0f b7 c9 	movzwl	%cx, %ecx
  4037c6:	0f b6 4c 0c 3c 	movzbl	60(%esp,%ecx), %ecx
  4037cb:	84 c9 	testb	%cl, %cl
  4037cd:	88 0b 	movb	%cl, (%ebx)
  4037cf:	75 df 	jne	-33 <.text+0x100>
  4037d1:	8b 54 24 10 	movl	16(%esp), %edx
  4037d5:	80 e2 58 	andb	$88, %dl
  4037d8:	83 fa 10 	cmpl	$16, %edx
  4037db:	77 13 	ja	19 <.text+0x140>
  4037dd:	89 56 08 	movl	%edx, 8(%esi)
  4037e0:	89 c3 	movl	%eax, %ebx
  4037e2:	81 c4 54 01 00 00 	addl	$340, %esp
  4037e8:	89 d8 	movl	%ebx, %eax
  4037ea:	5b 	popl	%ebx
  4037eb:	5e 	popl	%esi
  4037ec:	c3 	retl
  4037ed:	8d 76 00 	leal	(%esi), %esi
  4037f0:	c7 46 08 18 00 00 00 	movl	$24, 8(%esi)
  4037f7:	89 c3 	movl	%eax, %ebx
  4037f9:	81 c4 54 01 00 00 	addl	$340, %esp
  4037ff:	89 d8 	movl	%ebx, %eax
  403801:	5b 	popl	%ebx
  403802:	5e 	popl	%esi
  403803:	c3 	retl
  403804:	e8 9f 04 00 00 	calll	1183 <_GetLastError@0>
  403809:	31 db 	xorl	%ebx, %ebx
  40380b:	83 f8 12 	cmpl	$18, %eax
  40380e:	74 d2 	je	-46 <.text+0x132>
  403810:	e8 23 04 00 00 	calll	1059 <__errno>
  403815:	c7 00 02 00 00 00 	movl	$2, (%eax)
  40381b:	81 c4 54 01 00 00 	addl	$340, %esp
  403821:	89 d8 	movl	%ebx, %eax
  403823:	5b 	popl	%ebx
  403824:	5e 	popl	%esi
  403825:	c3 	retl
  403826:	8d 76 00 	leal	(%esi), %esi
  403829:	8d bc 27 00 00 00 00 	leal	(%edi), %edi

___mingw_opendir:
  403830:	55 	pushl	%ebp
  403831:	57 	pushl	%edi
  403832:	56 	pushl	%esi
  403833:	53 	pushl	%ebx
  403834:	81 ec 2c 01 00 00 	subl	$300, %esp
  40383a:	8b 84 24 40 01 00 00 	movl	320(%esp), %eax
  403841:	85 c0 	testl	%eax, %eax
  403843:	0f 84 85 01 00 00 	je	389 <___mingw_opendir+0x19E>
  403849:	80 38 00 	cmpb	$0, (%eax)
  40384c:	0f 84 5e 01 00 00 	je	350 <___mingw_opendir+0x180>
  403852:	8d 7c 24 1c 	leal	28(%esp), %edi
  403856:	c7 44 24 08 04 01 00 00 	movl	$260, 8(%esp)
  40385e:	89 44 24 04 	movl	%eax, 4(%esp)
  403862:	89 3c 24 	movl	%edi, (%esp)
  403865:	e8 c6 03 00 00 	calll	966 <__fullpath>
  40386a:	80 7c 24 1c 00 	cmpb	$0, 28(%esp)
  40386f:	89 f8 	movl	%edi, %eax
  403871:	74 4d 	je	77 <___mingw_opendir+0x90>
  403873:	8b 08 	movl	(%eax), %ecx
  403875:	83 c0 04 	addl	$4, %eax
  403878:	8d 91 ff fe fe fe 	leal	-16843009(%ecx), %edx
  40387e:	f7 d1 	notl	%ecx
  403880:	21 ca 	andl	%ecx, %edx
  403882:	81 e2 80 80 80 80 	andl	$2155905152, %edx
  403888:	74 e9 	je	-23 <___mingw_opendir+0x43>
  40388a:	f7 c2 80 80 00 00 	testl	$32896, %edx
  403890:	0f 84 0a 01 00 00 	je	266 <___mingw_opendir+0x170>
  403896:	89 d1 	movl	%edx, %ecx
  403898:	00 d1 	addb	%dl, %cl
  40389a:	83 d8 03 	sbbl	$3, %eax
  40389d:	29 f8 	subl	%edi, %eax
  40389f:	0f b6 54 04 1b 	movzbl	27(%esp,%eax), %edx
  4038a4:	80 fa 2f 	cmpb	$47, %dl
  4038a7:	74 43 	je	67 <___mingw_opendir+0xBC>
  4038a9:	80 fa 5c 	cmpb	$92, %dl
  4038ac:	74 3e 	je	62 <___mingw_opendir+0xBC>
  4038ae:	b9 5c 00 00 00 	movl	$92, %ecx
  4038b3:	66 89 0c 07 	movw	%cx, (%edi,%eax)
  4038b7:	83 c0 01 	addl	$1, %eax
  4038ba:	eb 30 	jmp	48 <___mingw_opendir+0xBC>
  4038bc:	8d 74 26 00 	leal	(%esi), %esi
  4038c0:	8b 08 	movl	(%eax), %ecx
  4038c2:	83 c0 04 	addl	$4, %eax
  4038c5:	8d 91 ff fe fe fe 	leal	-16843009(%ecx), %edx
  4038cb:	f7 d1 	notl	%ecx
  4038cd:	21 ca 	andl	%ecx, %edx
  4038cf:	81 e2 80 80 80 80 	andl	$2155905152, %edx
  4038d5:	74 e9 	je	-23 <___mingw_opendir+0x90>
  4038d7:	f7 c2 80 80 00 00 	testl	$32896, %edx
  4038dd:	0f 84 ad 00 00 00 	je	173 <___mingw_opendir+0x160>
  4038e3:	89 d1 	movl	%edx, %ecx
  4038e5:	00 d1 	addb	%dl, %cl
  4038e7:	83 d8 03 	sbbl	$3, %eax
  4038ea:	29 f8 	subl	%edi, %eax
  4038ec:	ba 2a 00 00 00 	movl	$42, %edx
  4038f1:	89 fe 	movl	%edi, %esi
  4038f3:	66 89 14 07 	movw	%dx, (%edi,%eax)
  4038f7:	8b 16 	movl	(%esi), %edx
  4038f9:	83 c6 04 	addl	$4, %esi
  4038fc:	8d 82 ff fe fe fe 	leal	-16843009(%edx), %eax
  403902:	f7 d2 	notl	%edx
  403904:	21 d0 	andl	%edx, %eax
  403906:	25 80 80 80 80 	andl	$2155905152, %eax
  40390b:	74 ea 	je	-22 <___mingw_opendir+0xC7>
  40390d:	a9 80 80 00 00 	testl	$32896, %eax
  403912:	75 06 	jne	6 <___mingw_opendir+0xEA>
  403914:	c1 e8 10 	shrl	$16, %eax
  403917:	83 c6 02 	addl	$2, %esi
  40391a:	89 c1 	movl	%eax, %ecx
  40391c:	00 c1 	addb	%al, %cl
  40391e:	83 de 03 	sbbl	$3, %esi
  403921:	29 fe 	subl	%edi, %esi
  403923:	8d 86 1c 01 00 00 	leal	284(%esi), %eax
  403929:	89 04 24 	movl	%eax, (%esp)
  40392c:	e8 c7 02 00 00 	calll	711 <_malloc>
  403931:	85 c0 	testl	%eax, %eax
  403933:	89 c3 	movl	%eax, %ebx
  403935:	0f 84 84 00 00 00 	je	132 <___mingw_opendir+0x18F>
  40393b:	8d a8 18 01 00 00 	leal	280(%eax), %ebp
  403941:	83 c6 01 	addl	$1, %esi
  403944:	89 7c 24 04 	movl	%edi, 4(%esp)
  403948:	89 74 24 08 	movl	%esi, 8(%esp)
  40394c:	89 2c 24 	movl	%ebp, (%esp)
  40394f:	e8 94 02 00 00 	calll	660 <_memcpy>
  403954:	89 da 	movl	%ebx, %edx
  403956:	89 e8 	movl	%ebp, %eax
  403958:	e8 53 fd ff ff 	calll	-685 <.text>
  40395d:	83 f8 ff 	cmpl	$-1, %eax
  403960:	89 83 10 01 00 00 	movl	%eax, 272(%ebx)
  403966:	74 75 	je	117 <___mingw_opendir+0x1AD>
  403968:	b8 10 01 00 00 	movl	$272, %eax
  40396d:	c7 83 14 01 00 00 00 00 00 00 	movl	$0, 276(%ebx)
  403977:	c7 03 00 00 00 00 	movl	$0, (%ebx)
  40397d:	66 89 43 04 	movw	%ax, 4(%ebx)
  403981:	89 d8 	movl	%ebx, %eax
  403983:	81 c4 2c 01 00 00 	addl	$300, %esp
  403989:	5b 	popl	%ebx
  40398a:	5e 	popl	%esi
  40398b:	5f 	popl	%edi
  40398c:	5d 	popl	%ebp
  40398d:	c3 	retl
  40398e:	66 90 	nop
  403990:	c1 ea 10 	shrl	$16, %edx
  403993:	83 c0 02 	addl	$2, %eax
  403996:	e9 48 ff ff ff 	jmp	-184 <___mingw_opendir+0xB3>
  40399b:	90 	nop
  40399c:	8d 74 26 00 	leal	(%esi), %esi
  4039a0:	c1 ea 10 	shrl	$16, %edx
  4039a3:	83 c0 02 	addl	$2, %eax
  4039a6:	e9 eb fe ff ff 	jmp	-277 <___mingw_opendir+0x66>
  4039ab:	90 	nop
  4039ac:	8d 74 26 00 	leal	(%esi), %esi
  4039b0:	e8 83 02 00 00 	calll	643 <__errno>
  4039b5:	c7 00 02 00 00 00 	movl	$2, (%eax)
  4039bb:	31 c0 	xorl	%eax, %eax
  4039bd:	eb c4 	jmp	-60 <___mingw_opendir+0x153>
  4039bf:	e8 74 02 00 00 	calll	628 <__errno>
  4039c4:	c7 00 0c 00 00 00 	movl	$12, (%eax)
  4039ca:	31 c0 	xorl	%eax, %eax
  4039cc:	eb b5 	jmp	-75 <___mingw_opendir+0x153>
  4039ce:	e8 65 02 00 00 	calll	613 <__errno>
  4039d3:	c7 00 16 00 00 00 	movl	$22, (%eax)
  4039d9:	31 c0 	xorl	%eax, %eax
  4039db:	eb a6 	jmp	-90 <___mingw_opendir+0x153>
  4039dd:	89 1c 24 	movl	%ebx, (%esp)
  4039e0:	e8 23 02 00 00 	calll	547 <_free>
  4039e5:	31 c0 	xorl	%eax, %eax
  4039e7:	eb 9a 	jmp	-102 <___mingw_opendir+0x153>
  4039e9:	8d b4 26 00 00 00 00 	leal	(%esi), %esi

___mingw_readdir:
  4039f0:	53 	pushl	%ebx
  4039f1:	83 ec 08 	subl	$8, %esp
  4039f4:	8b 5c 24 10 	movl	16(%esp), %ebx
  4039f8:	85 db 	testl	%ebx, %ebx
  4039fa:	74 2b 	je	43 <___mingw_readdir+0x37>
  4039fc:	8b 83 14 01 00 00 	movl	276(%ebx), %eax
  403a02:	8d 50 01 	leal	1(%eax), %edx
  403a05:	85 c0 	testl	%eax, %eax
  403a07:	89 93 14 01 00 00 	movl	%edx, 276(%ebx)
  403a0d:	7e 11 	jle	17 <___mingw_readdir+0x30>
  403a0f:	8b 83 10 01 00 00 	movl	272(%ebx), %eax
  403a15:	89 da 	movl	%ebx, %edx
  403a17:	e8 64 fd ff ff 	calll	-668 <.text+0xD0>
  403a1c:	85 c0 	testl	%eax, %eax
  403a1e:	74 02 	je	2 <___mingw_readdir+0x32>
  403a20:	89 d8 	movl	%ebx, %eax
  403a22:	83 c4 08 	addl	$8, %esp
  403a25:	5b 	popl	%ebx
  403a26:	c3 	retl
  403a27:	e8 0c 02 00 00 	calll	524 <__errno>
  403a2c:	c7 00 09 00 00 00 	movl	$9, (%eax)
  403a32:	31 c0 	xorl	%eax, %eax
  403a34:	eb ec 	jmp	-20 <___mingw_readdir+0x32>
  403a36:	8d 76 00 	leal	(%esi), %esi
  403a39:	8d bc 27 00 00 00 00 	leal	(%edi), %edi

___mingw_closedir:
  403a40:	53 	pushl	%ebx
  403a41:	83 ec 18 	subl	$24, %esp
  403a44:	8b 5c 24 20 	movl	32(%esp), %ebx
  403a48:	85 db 	testl	%ebx, %ebx
  403a4a:	74 24 	je	36 <___mingw_closedir+0x30>
  403a4c:	8b 83 10 01 00 00 	movl	272(%ebx), %eax
  403a52:	89 04 24 	movl	%eax, (%esp)
  403a55:	e8 76 02 00 00 	calll	630 <_FindClose@4>
  403a5a:	83 ec 04 	subl	$4, %esp
  403a5d:	85 c0 	testl	%eax, %eax
  403a5f:	74 0f 	je	15 <___mingw_closedir+0x30>
  403a61:	89 1c 24 	movl	%ebx, (%esp)
  403a64:	e8 9f 01 00 00 	calll	415 <_free>
  403a69:	31 c0 	xorl	%eax, %eax
  403a6b:	83 c4 18 	addl	$24, %esp
  403a6e:	5b 	popl	%ebx
  403a6f:	c3 	retl
  403a70:	e8 c3 01 00 00 	calll	451 <__errno>
  403a75:	c7 00 09 00 00 00 	movl	$9, (%eax)
  403a7b:	b8 ff ff ff ff 	movl	$4294967295, %eax
  403a80:	eb e9 	jmp	-23 <___mingw_closedir+0x2B>
  403a82:	8d b4 26 00 00 00 00 	leal	(%esi), %esi
  403a89:	8d bc 27 00 00 00 00 	leal	(%edi), %edi

___mingw_rewinddir:
  403a90:	53 	pushl	%ebx
  403a91:	83 ec 18 	subl	$24, %esp
  403a94:	8b 5c 24 20 	movl	32(%esp), %ebx
  403a98:	85 db 	testl	%ebx, %ebx
  403a9a:	74 15 	je	21 <___mingw_rewinddir+0x21>
  403a9c:	8b 83 10 01 00 00 	movl	272(%ebx), %eax
  403aa2:	89 04 24 	movl	%eax, (%esp)
  403aa5:	e8 26 02 00 00 	calll	550 <_FindClose@4>
  403aaa:	83 ec 04 	subl	$4, %esp
  403aad:	85 c0 	testl	%eax, %eax
  403aaf:	75 10 	jne	16 <___mingw_rewinddir+0x31>
  403ab1:	e8 82 01 00 00 	calll	386 <__errno>
  403ab6:	c7 00 09 00 00 00 	movl	$9, (%eax)
  403abc:	83 c4 18 	addl	$24, %esp
  403abf:	5b 	popl	%ebx
  403ac0:	c3 	retl
  403ac1:	8d 83 18 01 00 00 	leal	280(%ebx), %eax
  403ac7:	89 da 	movl	%ebx, %edx
  403ac9:	e8 e2 fb ff ff 	calll	-1054 <.text>
  403ace:	83 f8 ff 	cmpl	$-1, %eax
  403ad1:	89 83 10 01 00 00 	movl	%eax, 272(%ebx)
  403ad7:	74 e3 	je	-29 <___mingw_rewinddir+0x2C>
  403ad9:	c7 83 14 01 00 00 00 00 00 00 	movl	$0, 276(%ebx)
  403ae3:	83 c4 18 	addl	$24, %esp
  403ae6:	5b 	popl	%ebx
  403ae7:	c3 	retl
  403ae8:	90 	nop
  403ae9:	8d b4 26 00 00 00 00 	leal	(%esi), %esi

___mingw_telldir:
  403af0:	83 ec 0c 	subl	$12, %esp
  403af3:	8b 44 24 10 	movl	16(%esp), %eax
  403af7:	85 c0 	testl	%eax, %eax
  403af9:	74 0a 	je	10 <___mingw_telldir+0x15>
  403afb:	8b 80 14 01 00 00 	movl	276(%eax), %eax
  403b01:	83 c4 0c 	addl	$12, %esp
  403b04:	c3 	retl
  403b05:	e8 2e 01 00 00 	calll	302 <__errno>
  403b0a:	c7 00 09 00 00 00 	movl	$9, (%eax)
  403b10:	b8 ff ff ff ff 	movl	$4294967295, %eax
  403b15:	eb ea 	jmp	-22 <___mingw_telldir+0x11>
  403b17:	89 f6 	movl	%esi, %esi
  403b19:	8d bc 27 00 00 00 00 	leal	(%edi), %edi

___mingw_seekdir:
  403b20:	56 	pushl	%esi
  403b21:	53 	pushl	%ebx
  403b22:	83 ec 14 	subl	$20, %esp
  403b25:	8b 74 24 24 	movl	36(%esp), %esi
  403b29:	8b 5c 24 20 	movl	32(%esp), %ebx
  403b2d:	85 f6 	testl	%esi, %esi
  403b2f:	78 4f 	js	79 <___mingw_seekdir+0x60>
  403b31:	89 1c 24 	movl	%ebx, (%esp)
  403b34:	e8 57 ff ff ff 	calll	-169 <___mingw_rewinddir>
  403b39:	85 f6 	testl	%esi, %esi
  403b3b:	74 37 	je	55 <___mingw_seekdir+0x54>
  403b3d:	83 bb 10 01 00 00 ff 	cmpl	$-1, 272(%ebx)
  403b44:	75 1b 	jne	27 <___mingw_seekdir+0x41>
  403b46:	eb 2c 	jmp	44 <___mingw_seekdir+0x54>
  403b48:	90 	nop
  403b49:	8d b4 26 00 00 00 00 	leal	(%esi), %esi
  403b50:	8b 83 10 01 00 00 	movl	272(%ebx), %eax
  403b56:	89 da 	movl	%ebx, %edx
  403b58:	e8 23 fc ff ff 	calll	-989 <.text+0xD0>
  403b5d:	85 c0 	testl	%eax, %eax
  403b5f:	74 13 	je	19 <___mingw_seekdir+0x54>
  403b61:	8b 83 14 01 00 00 	movl	276(%ebx), %eax
  403b67:	83 c0 01 	addl	$1, %eax
  403b6a:	39 c6 	cmpl	%eax, %esi
  403b6c:	89 83 14 01 00 00 	movl	%eax, 276(%ebx)
  403b72:	7f dc 	jg	-36 <___mingw_seekdir+0x30>
  403b74:	83 c4 14 	addl	$20, %esp
  403b77:	5b 	popl	%ebx
  403b78:	5e 	popl	%esi
  403b79:	c3 	retl
  403b7a:	8d b6 00 00 00 00 	leal	(%esi), %esi
  403b80:	e8 b3 00 00 00 	calll	179 <__errno>
  403b85:	c7 00 16 00 00 00 	movl	$22, (%eax)
  403b8b:	83 c4 14 	addl	$20, %esp
  403b8e:	5b 	popl	%ebx
  403b8f:	5e 	popl	%esi
  403b90:	c3 	retl
  403b91:	90 	nop
  403b92:	90 	nop
  403b93:	90 	nop
  403b94:	90 	nop
  403b95:	90 	nop
  403b96:	90 	nop
  403b97:	90 	nop
  403b98:	90 	nop
  403b99:	90 	nop
  403b9a:	90 	nop
  403b9b:	90 	nop
  403b9c:	90 	nop
  403b9d:	90 	nop
  403b9e:	90 	nop
  403b9f:	90 	nop

_wcstombs:
  403ba0:	ff 25 f8 81 40 00 	jmpl	*4227576
  403ba6:	90 	nop
  403ba7:	90 	nop

_vfprintf:
  403ba8:	ff 25 f4 81 40 00 	jmpl	*4227572
  403bae:	90 	nop
  403baf:	90 	nop

_tolower:
  403bb0:	ff 25 f0 81 40 00 	jmpl	*4227568
  403bb6:	90 	nop
  403bb7:	90 	nop

_strncpy:
  403bb8:	ff 25 ec 81 40 00 	jmpl	*4227564
  403bbe:	90 	nop
  403bbf:	90 	nop

_strlen:
  403bc0:	ff 25 e8 81 40 00 	jmpl	*4227560
  403bc6:	90 	nop
  403bc7:	90 	nop

_strcoll:
  403bc8:	ff 25 e4 81 40 00 	jmpl	*4227556
  403bce:	90 	nop
  403bcf:	90 	nop

_signal:
  403bd0:	ff 25 e0 81 40 00 	jmpl	*4227552
  403bd6:	90 	nop
  403bd7:	90 	nop

_setlocale:
  403bd8:	ff 25 dc 81 40 00 	jmpl	*4227548
  403bde:	90 	nop
  403bdf:	90 	nop

_realloc:
  403be0:	ff 25 d8 81 40 00 	jmpl	*4227544
  403be6:	90 	nop
  403be7:	90 	nop

_memcpy:
  403be8:	ff 25 d4 81 40 00 	jmpl	*4227540
  403bee:	90 	nop
  403bef:	90 	nop

_mbstowcs:
  403bf0:	ff 25 d0 81 40 00 	jmpl	*4227536
  403bf6:	90 	nop
  403bf7:	90 	nop

_malloc:
  403bf8:	ff 25 cc 81 40 00 	jmpl	*4227532
  403bfe:	90 	nop
  403bff:	90 	nop

_fwrite:
  403c00:	ff 25 c8 81 40 00 	jmpl	*4227528
  403c06:	90 	nop
  403c07:	90 	nop

_free:
  403c08:	ff 25 c4 81 40 00 	jmpl	*4227524
  403c0e:	90 	nop
  403c0f:	90 	nop

_calloc:
  403c10:	ff 25 c0 81 40 00 	jmpl	*4227520
  403c16:	90 	nop
  403c17:	90 	nop

_abort:
  403c18:	ff 25 b8 81 40 00 	jmpl	*4227512
  403c1e:	90 	nop
  403c1f:	90 	nop

__setmode:
  403c20:	ff 25 b4 81 40 00 	jmpl	*4227508
  403c26:	90 	nop
  403c27:	90 	nop

__isctype:
  403c28:	ff 25 a8 81 40 00 	jmpl	*4227496
  403c2e:	90 	nop
  403c2f:	90 	nop

__fullpath:
  403c30:	ff 25 a0 81 40 00 	jmpl	*4227488
  403c36:	90 	nop
  403c37:	90 	nop

__errno:
  403c38:	ff 25 98 81 40 00 	jmpl	*4227480
  403c3e:	90 	nop
  403c3f:	90 	nop

__cexit:
  403c40:	ff 25 94 81 40 00 	jmpl	*4227476
  403c46:	90 	nop
  403c47:	90 	nop

___p__fmode:
  403c48:	ff 25 8c 81 40 00 	jmpl	*4227468
  403c4e:	90 	nop
  403c4f:	90 	nop

___p__environ:
  403c50:	ff 25 88 81 40 00 	jmpl	*4227464
  403c56:	90 	nop
  403c57:	90 	nop

___getmainargs:
  403c58:	ff 25 80 81 40 00 	jmpl	*4227456
  403c5e:	90 	nop
  403c5f:	90 	nop

_VirtualQuery@12:
  403c60:	ff 25 6c 81 40 00 	jmpl	*4227436
  403c66:	90 	nop
  403c67:	90 	nop

_VirtualProtect@16:
  403c68:	ff 25 68 81 40 00 	jmpl	*4227432
  403c6e:	90 	nop
  403c6f:	90 	nop

_TlsGetValue@4:
  403c70:	ff 25 64 81 40 00 	jmpl	*4227428
  403c76:	90 	nop
  403c77:	90 	nop

_SetUnhandledExceptionFilter@4:
  403c78:	ff 25 60 81 40 00 	jmpl	*4227424
  403c7e:	90 	nop
  403c7f:	90 	nop

_LoadLibraryA@4:
  403c80:	ff 25 5c 81 40 00 	jmpl	*4227420
  403c86:	90 	nop
  403c87:	90 	nop

_LeaveCriticalSection@4:
  403c88:	ff 25 58 81 40 00 	jmpl	*4227416
  403c8e:	90 	nop
  403c8f:	90 	nop

_InitializeCriticalSection@4:
  403c90:	ff 25 54 81 40 00 	jmpl	*4227412
  403c96:	90 	nop
  403c97:	90 	nop

_GetProcAddress@8:
  403c98:	ff 25 50 81 40 00 	jmpl	*4227408
  403c9e:	90 	nop
  403c9f:	90 	nop

_GetModuleHandleA@4:
  403ca0:	ff 25 4c 81 40 00 	jmpl	*4227404
  403ca6:	90 	nop
  403ca7:	90 	nop

_GetLastError@0:
  403ca8:	ff 25 48 81 40 00 	jmpl	*4227400
  403cae:	90 	nop
  403caf:	90 	nop

_GetCommandLineA@0:
  403cb0:	ff 25 44 81 40 00 	jmpl	*4227396
  403cb6:	90 	nop
  403cb7:	90 	nop

_FreeLibrary@4:
  403cb8:	ff 25 40 81 40 00 	jmpl	*4227392
  403cbe:	90 	nop
  403cbf:	90 	nop

_FindNextFileA@8:
  403cc0:	ff 25 3c 81 40 00 	jmpl	*4227388
  403cc6:	90 	nop
  403cc7:	90 	nop

_FindFirstFileA@8:
  403cc8:	ff 25 38 81 40 00 	jmpl	*4227384
  403cce:	90 	nop
  403ccf:	90 	nop

_FindClose@4:
  403cd0:	ff 25 34 81 40 00 	jmpl	*4227380
  403cd6:	90 	nop
  403cd7:	90 	nop

_ExitProcess@4:
  403cd8:	ff 25 30 81 40 00 	jmpl	*4227376
  403cde:	90 	nop
  403cdf:	90 	nop

_EnterCriticalSection@4:
  403ce0:	ff 25 2c 81 40 00 	jmpl	*4227372
  403ce6:	90 	nop
  403ce7:	90 	nop

_DeleteCriticalSection@4:
  403ce8:	ff 25 28 81 40 00 	jmpl	*4227368
  403cee:	90 	nop
  403cef:	90 	nop

_stricoll:
  403cf0:	ff 25 78 81 40 00 	jmpl	*4227448
  403cf6:	90 	nop
  403cf7:	90 	nop

_strdup:
  403cf8:	ff 25 74 81 40 00 	jmpl	*4227444
  403cfe:	90 	nop
  403cff:	90 	nop

_register_frame_ctor:
  403d00:	55 	pushl	%ebp
  403d01:	89 e5 	movl	%esp, %ebp
  403d03:	5d 	popl	%ebp
  403d04:	e9 37 d6 ff ff 	jmp	-10697 <___gcc_register_frame>
  403d09:	90 	nop
  403d0a:	90 	nop
  403d0b:	90 	nop
  403d0c:	90 	nop
  403d0d:	90 	nop
  403d0e:	90 	nop
  403d0f:	90 	nop

___CTOR_LIST__:
  403d10:	ff ff  <unknown>
  403d12:	ff ff  <unknown>

.ctors.65535:
  403d14:	00 3d 40 00 00 00 	addb	%bh, 64
  403d1a:	00 00 	addb	%al, (%eax)

___DTOR_LIST__:
  403d1c:	ff ff  <unknown>
  403d1e:	ff ff  <unknown>
  403d20:	00 00 	addb	%al, (%eax)
  403d22:	00 00 	addb	%al, (%eax)
